
vmlinux:     file format elf32-tradbigmips

Disassembly of section .except_vec3:

80000080 <except_vec3>:
80000080:	00000000 	nop
80000084:	401b6800 	mfc0	k1,c0_cause
80000088:	3c1a8001 	lui	k0,0x8001
8000008c:	275a31c0 	addiu	k0,k0,12736
80000090:	337b007c 	andi	k1,k1,0x7c
80000094:	035bd021 	addu	k0,k0,k1
80000098:	8f5a0000 	lw	k0,0(k0)
8000009c:	00000000 	nop
800000a0:	03400008 	jr	k0
800000a4:	00000000 	nop
Disassembly of section .text:

80010000 <_start>:
80010000:	40806000 	mtc0	zero,c0_status
80010004:	00000000 	nop
80010008:	40809000 	mtc0	zero,c0_watchlo
8001000c:	00000000 	nop
80010010:	40809800 	mtc0	zero,c0_watchhi
80010014:	00000000 	nop
80010018:	40088000 	mfc0	t0,c0_config
8001001c:	2401fff8 	li	at,-8
80010020:	01014024 	and	t0,t0,at
80010024:	35080002 	ori	t0,t0,0x2
80010028:	40888000 	mtc0	t0,c0_config
8001002c:	3c1d8040 	lui	sp,0x8040
80010030:	3c088040 	lui	t0,0x8040
80010034:	3c018001 	lui	at,0x8001
80010038:	0c004014 	jal	80010050 <main>
8001003c:	ac282be0 	sw	t0,11232(at)

80010040 <loop>:
80010040:	08004010 	j	80010040 <loop>
80010044:	00000000 	nop
	...

80010050 <main>:
80010050:	27bdffe8 	addiu	sp,sp,-24
80010054:	afbf0010 	sw	ra,16(sp)
80010058:	3c048001 	lui	a0,0x8001
8001005c:	0c0042a5 	jal	80010a94 <printf>
80010060:	24842550 	addiu	a0,a0,9552
80010064:	0c004024 	jal	80010090 <mips_init>
80010068:	00000000 	nop
8001006c:	3c048001 	lui	a0,0x8001
80010070:	2484256c 	addiu	a0,a0,9580
80010074:	24050014 	li	a1,20
80010078:	3c068001 	lui	a2,0x8001
8001007c:	0c0042b4 	jal	80010ad0 <_panic>
80010080:	24c62574 	addiu	a2,a2,9588
	...

80010090 <mips_init>:
80010090:	27bdffe8 	addiu	sp,sp,-24
80010094:	afbf0010 	sw	ra,16(sp)
80010098:	3c048001 	lui	a0,0x8001
8001009c:	0c0042a5 	jal	80010a94 <printf>
800100a0:	2484258c 	addiu	a0,a0,9612
800100a4:	0c0042f8 	jal	80010be0 <mips_detect_memory>
800100a8:	00000000 	nop
800100ac:	0c00439b 	jal	80010e6c <mips_vm_init>
800100b0:	00000000 	nop
800100b4:	0c0043ce 	jal	80010f38 <page_init>
800100b8:	00000000 	nop
800100bc:	0c0042d0 	jal	80010b40 <trap_init>
800100c0:	00000000 	nop
800100c4:	0c004546 	jal	80011518 <page_check>
800100c8:	00000000 	nop
800100cc:	3c048001 	lui	a0,0x8001
800100d0:	248425ac 	addiu	a0,a0,9644
800100d4:	24050029 	li	a1,41
800100d8:	3c068001 	lui	a2,0x8001
800100dc:	0c0042b4 	jal	80010ad0 <_panic>
800100e0:	24c625b4 	addiu	a2,a2,9652

800100e4 <bcopy>:
800100e4:	00c53021 	addu	a2,a2,a1
800100e8:	24a20003 	addiu	v0,a1,3
800100ec:	0046102b 	sltu	v0,v0,a2
800100f0:	1040000a 	beqz	v0,8001011c <bcopy+0x38>
800100f4:	00a6102b 	sltu	v0,a1,a2
800100f8:	00a01821 	move	v1,a1
800100fc:	8c820000 	lw	v0,0(a0)
80010100:	aca20000 	sw	v0,0(a1)
80010104:	24a50004 	addiu	a1,a1,4
80010108:	24630007 	addiu	v1,v1,7
8001010c:	0066182b 	sltu	v1,v1,a2
80010110:	1460fff9 	bnez	v1,800100f8 <bcopy+0x14>
80010114:	24840004 	addiu	a0,a0,4
80010118:	00a6102b 	sltu	v0,a1,a2
8001011c:	10400006 	beqz	v0,80010138 <bcopy+0x54>
80010120:	00a01821 	move	v1,a1
80010124:	90820000 	lbu	v0,0(a0)
80010128:	a0620000 	sb	v0,0(v1)
8001012c:	24630001 	addiu	v1,v1,1
80010130:	1466fffc 	bne	v1,a2,80010124 <bcopy+0x40>
80010134:	24840001 	addiu	a0,a0,1
80010138:	03e00008 	jr	ra
8001013c:	00000000 	nop

80010140 <bzero>:
80010140:	00a42821 	addu	a1,a1,a0
80010144:	24820003 	addiu	v0,a0,3
80010148:	0045102b 	sltu	v0,v0,a1
8001014c:	10400008 	beqz	v0,80010170 <bzero+0x30>
80010150:	0085102b 	sltu	v0,a0,a1
80010154:	00801021 	move	v0,a0
80010158:	ac800000 	sw	zero,0(a0)
8001015c:	24420007 	addiu	v0,v0,7
80010160:	0045102b 	sltu	v0,v0,a1
80010164:	1440fffb 	bnez	v0,80010154 <bzero+0x14>
80010168:	24840004 	addiu	a0,a0,4
8001016c:	0085102b 	sltu	v0,a0,a1
80010170:	10400005 	beqz	v0,80010188 <bzero+0x48>
80010174:	00801021 	move	v0,a0
80010178:	a0400000 	sb	zero,0(v0)
8001017c:	24420001 	addiu	v0,v0,1
80010180:	1445fffd 	bne	v0,a1,80010178 <bzero+0x38>
80010184:	00000000 	nop
80010188:	03e00008 	jr	ra
8001018c:	00000000 	nop

80010190 <printcharc>:
80010190:	308400ff 	andi	a0,a0,0xff
80010194:	3c029000 	lui	v0,0x9000
80010198:	a0440000 	sb	a0,0(v0)
8001019c:	03e00008 	jr	ra
800101a0:	00000000 	nop

800101a4 <halt>:
800101a4:	3c029000 	lui	v0,0x9000
800101a8:	34420010 	ori	v0,v0,0x10
800101ac:	a0400000 	sb	zero,0(v0)
800101b0:	03e00008 	jr	ra
800101b4:	00000000 	nop

800101b8 <printstr>:
800101b8:	27bdffe8 	addiu	sp,sp,-24
800101bc:	afbf0014 	sw	ra,20(sp)
800101c0:	afb00010 	sw	s0,16(sp)
800101c4:	00808021 	move	s0,a0
800101c8:	80840000 	lb	a0,0(a0)
800101cc:	10800006 	beqz	a0,800101e8 <printstr+0x30>
800101d0:	8fbf0014 	lw	ra,20(sp)
800101d4:	0c004064 	jal	80010190 <printcharc>
800101d8:	26100001 	addiu	s0,s0,1
800101dc:	82040000 	lb	a0,0(s0)
800101e0:	1480fffc 	bnez	a0,800101d4 <printstr+0x1c>
800101e4:	8fbf0014 	lw	ra,20(sp)
800101e8:	8fb00010 	lw	s0,16(sp)
800101ec:	03e00008 	jr	ra
800101f0:	27bd0018 	addiu	sp,sp,24
	...

80010200 <lp_Print>:
80010200:	27bdfbe0 	addiu	sp,sp,-1056
80010204:	afbf041c 	sw	ra,1052(sp)
80010208:	afb40418 	sw	s4,1048(sp)
8001020c:	afb30414 	sw	s3,1044(sp)
80010210:	afb20410 	sw	s2,1040(sp)
80010214:	afb1040c 	sw	s1,1036(sp)
80010218:	afb00408 	sw	s0,1032(sp)
8001021c:	0080a021 	move	s4,a0
80010220:	00a09821 	move	s3,a1
80010224:	00c02821 	move	a1,a2
80010228:	00e09021 	move	s2,a3
8001022c:	80a30000 	lb	v1,0(a1)
80010230:	1060000c 	beqz	v1,80010264 <lp_Print+0x64>
80010234:	00a08021 	move	s0,a1
80010238:	1000012b 	b	800106e8 <lp_Print+0x4e8>
8001023c:	24020025 	li	v0,37
80010240:	00a08021 	move	s0,a1
80010244:	26100001 	addiu	s0,s0,1
80010248:	82020000 	lb	v0,0(s0)
8001024c:	10400006 	beqz	v0,80010268 <lp_Print+0x68>
80010250:	02053023 	subu	a2,s0,a1
80010254:	10430005 	beq	v0,v1,8001026c <lp_Print+0x6c>
80010258:	2cc203e9 	sltiu	v0,a2,1001
8001025c:	1000fffa 	b	80010248 <lp_Print+0x48>
80010260:	26100001 	addiu	s0,s0,1
80010264:	02053023 	subu	a2,s0,a1
80010268:	2cc203e9 	sltiu	v0,a2,1001
8001026c:	14400007 	bnez	v0,8001028c <lp_Print+0x8c>
80010270:	02602021 	move	a0,s3
80010274:	3c058001 	lui	a1,0x8001
80010278:	24a52340 	addiu	a1,a1,9024
8001027c:	0280f809 	jalr	s4
80010280:	24060018 	li	a2,24
80010284:	1000ffff 	b	80010284 <lp_Print+0x84>
80010288:	00000000 	nop
8001028c:	0280f809 	jalr	s4
80010290:	02602021 	move	a0,s3
80010294:	82020000 	lb	v0,0(s0)
80010298:	10400106 	beqz	v0,800106b4 <lp_Print+0x4b4>
8001029c:	2402006c 	li	v0,108
800102a0:	82030001 	lb	v1,1(s0)
800102a4:	10620003 	beq	v1,v0,800102b4 <lp_Print+0xb4>
800102a8:	26110001 	addiu	s1,s0,1
800102ac:	10000003 	b	800102bc <lp_Print+0xbc>
800102b0:	00002021 	move	a0,zero
800102b4:	26110002 	addiu	s1,s0,2
800102b8:	24040001 	li	a0,1
800102bc:	82230000 	lb	v1,0(s1)
800102c0:	2402002d 	li	v0,45
800102c4:	14620004 	bne	v1,v0,800102d8 <lp_Print+0xd8>
800102c8:	00003821 	move	a3,zero
800102cc:	26310001 	addiu	s1,s1,1
800102d0:	24070001 	li	a3,1
800102d4:	82230000 	lb	v1,0(s1)
800102d8:	24020030 	li	v0,48
800102dc:	14620003 	bne	v1,v0,800102ec <lp_Print+0xec>
800102e0:	24090020 	li	t1,32
800102e4:	26310001 	addiu	s1,s1,1
800102e8:	24090030 	li	t1,48
800102ec:	82260000 	lb	a2,0(s1)
800102f0:	24c2ffd0 	addiu	v0,a2,-48
800102f4:	304200ff 	andi	v0,v0,0xff
800102f8:	2c42000a 	sltiu	v0,v0,10
800102fc:	1040000d 	beqz	v0,80010334 <lp_Print+0x134>
80010300:	00004021 	move	t0,zero
80010304:	00081040 	sll	v0,t0,0x1
80010308:	000818c0 	sll	v1,t0,0x3
8001030c:	00431021 	addu	v0,v0,v1
80010310:	00461021 	addu	v0,v0,a2
80010314:	2448ffd0 	addiu	t0,v0,-48
80010318:	26310001 	addiu	s1,s1,1
8001031c:	82260000 	lb	a2,0(s1)
80010320:	24c2ffd0 	addiu	v0,a2,-48
80010324:	304200ff 	andi	v0,v0,0xff
80010328:	2c42000a 	sltiu	v0,v0,10
8001032c:	1440fff6 	bnez	v0,80010308 <lp_Print+0x108>
80010330:	00081040 	sll	v0,t0,0x1
80010334:	82230000 	lb	v1,0(s1)
80010338:	2402002e 	li	v0,46
8001033c:	14620011 	bne	v1,v0,80010384 <lp_Print+0x184>
80010340:	2c620079 	sltiu	v0,v1,121
80010344:	26310001 	addiu	s1,s1,1
80010348:	92220000 	lbu	v0,0(s1)
8001034c:	2442ffd0 	addiu	v0,v0,-48
80010350:	304200ff 	andi	v0,v0,0xff
80010354:	2c42000a 	sltiu	v0,v0,10
80010358:	10400008 	beqz	v0,8001037c <lp_Print+0x17c>
8001035c:	00000000 	nop
80010360:	26310001 	addiu	s1,s1,1
80010364:	92220000 	lbu	v0,0(s1)
80010368:	2442ffd0 	addiu	v0,v0,-48
8001036c:	304200ff 	andi	v0,v0,0xff
80010370:	2c42000a 	sltiu	v0,v0,10
80010374:	1440fffa 	bnez	v0,80010360 <lp_Print+0x160>
80010378:	00000000 	nop
8001037c:	82230000 	lb	v1,0(s1)
80010380:	2c620079 	sltiu	v0,v1,121
80010384:	104000c5 	beqz	v0,8001069c <lp_Print+0x49c>
80010388:	00031080 	sll	v0,v1,0x2
8001038c:	3c038001 	lui	v1,0x8001
80010390:	24632360 	addiu	v1,v1,9056
80010394:	00431021 	addu	v0,v0,v1
80010398:	8c420000 	lw	v0,0(v0)
8001039c:	00400008 	jr	v0
800103a0:	00000000 	nop
800103a4:	10800004 	beqz	a0,800103b8 <lp_Print+0x1b8>
800103a8:	00000000 	nop
800103ac:	8e450000 	lw	a1,0(s2)
800103b0:	10000003 	b	800103c0 <lp_Print+0x1c0>
800103b4:	26520004 	addiu	s2,s2,4
800103b8:	8e450000 	lw	a1,0(s2)
800103bc:	26520004 	addiu	s2,s2,4
800103c0:	afa80010 	sw	t0,16(sp)
800103c4:	afa70014 	sw	a3,20(sp)
800103c8:	afa90018 	sw	t1,24(sp)
800103cc:	afa0001c 	sw	zero,28(sp)
800103d0:	27a40020 	addiu	a0,sp,32
800103d4:	24060002 	li	a2,2
800103d8:	0c004220 	jal	80010880 <PrintNum>
800103dc:	00003821 	move	a3,zero
800103e0:	00403021 	move	a2,v0
800103e4:	2c4203e9 	sltiu	v0,v0,1001
800103e8:	14400007 	bnez	v0,80010408 <lp_Print+0x208>
800103ec:	02602021 	move	a0,s3
800103f0:	3c058001 	lui	a1,0x8001
800103f4:	24a52340 	addiu	a1,a1,9024
800103f8:	0280f809 	jalr	s4
800103fc:	24060018 	li	a2,24
80010400:	1000ffff 	b	80010400 <lp_Print+0x200>
80010404:	00000000 	nop
80010408:	0280f809 	jalr	s4
8001040c:	27a50020 	addiu	a1,sp,32
80010410:	1000ff86 	b	8001022c <lp_Print+0x2c>
80010414:	26250001 	addiu	a1,s1,1
80010418:	10800004 	beqz	a0,8001042c <lp_Print+0x22c>
8001041c:	00000000 	nop
80010420:	8e450000 	lw	a1,0(s2)
80010424:	10000003 	b	80010434 <lp_Print+0x234>
80010428:	26520004 	addiu	s2,s2,4
8001042c:	8e450000 	lw	a1,0(s2)
80010430:	26520004 	addiu	s2,s2,4
80010434:	04a10003 	bgez	a1,80010444 <lp_Print+0x244>
80010438:	00001021 	move	v0,zero
8001043c:	00052823 	negu	a1,a1
80010440:	24020001 	li	v0,1
80010444:	afa80010 	sw	t0,16(sp)
80010448:	afa70014 	sw	a3,20(sp)
8001044c:	afa90018 	sw	t1,24(sp)
80010450:	afa0001c 	sw	zero,28(sp)
80010454:	27a40020 	addiu	a0,sp,32
80010458:	2406000a 	li	a2,10
8001045c:	0c004220 	jal	80010880 <PrintNum>
80010460:	00403821 	move	a3,v0
80010464:	00403021 	move	a2,v0
80010468:	2c4203e9 	sltiu	v0,v0,1001
8001046c:	14400007 	bnez	v0,8001048c <lp_Print+0x28c>
80010470:	02602021 	move	a0,s3
80010474:	3c058001 	lui	a1,0x8001
80010478:	24a52340 	addiu	a1,a1,9024
8001047c:	0280f809 	jalr	s4
80010480:	24060018 	li	a2,24
80010484:	1000ffff 	b	80010484 <lp_Print+0x284>
80010488:	00000000 	nop
8001048c:	0280f809 	jalr	s4
80010490:	27a50020 	addiu	a1,sp,32
80010494:	1000ff65 	b	8001022c <lp_Print+0x2c>
80010498:	26250001 	addiu	a1,s1,1
8001049c:	10800004 	beqz	a0,800104b0 <lp_Print+0x2b0>
800104a0:	00000000 	nop
800104a4:	8e450000 	lw	a1,0(s2)
800104a8:	10000003 	b	800104b8 <lp_Print+0x2b8>
800104ac:	26520004 	addiu	s2,s2,4
800104b0:	8e450000 	lw	a1,0(s2)
800104b4:	26520004 	addiu	s2,s2,4
800104b8:	afa80010 	sw	t0,16(sp)
800104bc:	afa70014 	sw	a3,20(sp)
800104c0:	afa90018 	sw	t1,24(sp)
800104c4:	afa0001c 	sw	zero,28(sp)
800104c8:	27a40020 	addiu	a0,sp,32
800104cc:	2406000a 	li	a2,10
800104d0:	0c004220 	jal	80010880 <PrintNum>
800104d4:	00003821 	move	a3,zero
800104d8:	00403021 	move	a2,v0
800104dc:	2c4203e9 	sltiu	v0,v0,1001
800104e0:	14400007 	bnez	v0,80010500 <lp_Print+0x300>
800104e4:	02602021 	move	a0,s3
800104e8:	3c058001 	lui	a1,0x8001
800104ec:	24a52340 	addiu	a1,a1,9024
800104f0:	0280f809 	jalr	s4
800104f4:	24060018 	li	a2,24
800104f8:	1000ffff 	b	800104f8 <lp_Print+0x2f8>
800104fc:	00000000 	nop
80010500:	0280f809 	jalr	s4
80010504:	27a50020 	addiu	a1,sp,32
80010508:	1000ff48 	b	8001022c <lp_Print+0x2c>
8001050c:	26250001 	addiu	a1,s1,1
80010510:	10800004 	beqz	a0,80010524 <lp_Print+0x324>
80010514:	00000000 	nop
80010518:	8e450000 	lw	a1,0(s2)
8001051c:	10000003 	b	8001052c <lp_Print+0x32c>
80010520:	26520004 	addiu	s2,s2,4
80010524:	8e450000 	lw	a1,0(s2)
80010528:	26520004 	addiu	s2,s2,4
8001052c:	afa80010 	sw	t0,16(sp)
80010530:	afa70014 	sw	a3,20(sp)
80010534:	afa90018 	sw	t1,24(sp)
80010538:	afa0001c 	sw	zero,28(sp)
8001053c:	27a40020 	addiu	a0,sp,32
80010540:	24060010 	li	a2,16
80010544:	0c004220 	jal	80010880 <PrintNum>
80010548:	00003821 	move	a3,zero
8001054c:	00403021 	move	a2,v0
80010550:	2c4203e9 	sltiu	v0,v0,1001
80010554:	14400007 	bnez	v0,80010574 <lp_Print+0x374>
80010558:	02602021 	move	a0,s3
8001055c:	3c058001 	lui	a1,0x8001
80010560:	24a52340 	addiu	a1,a1,9024
80010564:	0280f809 	jalr	s4
80010568:	24060018 	li	a2,24
8001056c:	1000ffff 	b	8001056c <lp_Print+0x36c>
80010570:	00000000 	nop
80010574:	0280f809 	jalr	s4
80010578:	27a50020 	addiu	a1,sp,32
8001057c:	1000ff2b 	b	8001022c <lp_Print+0x2c>
80010580:	26250001 	addiu	a1,s1,1
80010584:	10800004 	beqz	a0,80010598 <lp_Print+0x398>
80010588:	00000000 	nop
8001058c:	8e450000 	lw	a1,0(s2)
80010590:	10000003 	b	800105a0 <lp_Print+0x3a0>
80010594:	26520004 	addiu	s2,s2,4
80010598:	8e450000 	lw	a1,0(s2)
8001059c:	26520004 	addiu	s2,s2,4
800105a0:	afa80010 	sw	t0,16(sp)
800105a4:	afa70014 	sw	a3,20(sp)
800105a8:	afa90018 	sw	t1,24(sp)
800105ac:	24020001 	li	v0,1
800105b0:	afa2001c 	sw	v0,28(sp)
800105b4:	27a40020 	addiu	a0,sp,32
800105b8:	24060010 	li	a2,16
800105bc:	0c004220 	jal	80010880 <PrintNum>
800105c0:	00003821 	move	a3,zero
800105c4:	00403021 	move	a2,v0
800105c8:	2c4203e9 	sltiu	v0,v0,1001
800105cc:	14400007 	bnez	v0,800105ec <lp_Print+0x3ec>
800105d0:	02602021 	move	a0,s3
800105d4:	3c058001 	lui	a1,0x8001
800105d8:	24a52340 	addiu	a1,a1,9024
800105dc:	0280f809 	jalr	s4
800105e0:	24060018 	li	a2,24
800105e4:	1000ffff 	b	800105e4 <lp_Print+0x3e4>
800105e8:	00000000 	nop
800105ec:	0280f809 	jalr	s4
800105f0:	27a50020 	addiu	a1,sp,32
800105f4:	1000ff0d 	b	8001022c <lp_Print+0x2c>
800105f8:	26250001 	addiu	a1,s1,1
800105fc:	26500004 	addiu	s0,s2,4
80010600:	27a40020 	addiu	a0,sp,32
80010604:	82450003 	lb	a1,3(s2)
80010608:	0c0041be 	jal	800106f8 <PrintChar>
8001060c:	01003021 	move	a2,t0
80010610:	00403021 	move	a2,v0
80010614:	2c4203e9 	sltiu	v0,v0,1001
80010618:	14400007 	bnez	v0,80010638 <lp_Print+0x438>
8001061c:	02602021 	move	a0,s3
80010620:	3c058001 	lui	a1,0x8001
80010624:	24a52340 	addiu	a1,a1,9024
80010628:	0280f809 	jalr	s4
8001062c:	24060018 	li	a2,24
80010630:	1000ffff 	b	80010630 <lp_Print+0x430>
80010634:	00000000 	nop
80010638:	0280f809 	jalr	s4
8001063c:	27a50020 	addiu	a1,sp,32
80010640:	1000001a 	b	800106ac <lp_Print+0x4ac>
80010644:	02009021 	move	s2,s0
80010648:	26500004 	addiu	s0,s2,4
8001064c:	27a40020 	addiu	a0,sp,32
80010650:	8e450000 	lw	a1,0(s2)
80010654:	0c0041de 	jal	80010778 <PrintString>
80010658:	01003021 	move	a2,t0
8001065c:	00403021 	move	a2,v0
80010660:	2c4203e9 	sltiu	v0,v0,1001
80010664:	14400007 	bnez	v0,80010684 <lp_Print+0x484>
80010668:	02602021 	move	a0,s3
8001066c:	3c058001 	lui	a1,0x8001
80010670:	24a52340 	addiu	a1,a1,9024
80010674:	0280f809 	jalr	s4
80010678:	24060018 	li	a2,24
8001067c:	1000ffff 	b	8001067c <lp_Print+0x47c>
80010680:	00000000 	nop
80010684:	0280f809 	jalr	s4
80010688:	27a50020 	addiu	a1,sp,32
8001068c:	10000007 	b	800106ac <lp_Print+0x4ac>
80010690:	02009021 	move	s2,s0
80010694:	10000005 	b	800106ac <lp_Print+0x4ac>
80010698:	2631ffff 	addiu	s1,s1,-1
8001069c:	02602021 	move	a0,s3
800106a0:	02202821 	move	a1,s1
800106a4:	0280f809 	jalr	s4
800106a8:	24060001 	li	a2,1
800106ac:	1000fedf 	b	8001022c <lp_Print+0x2c>
800106b0:	26250001 	addiu	a1,s1,1
800106b4:	02602021 	move	a0,s3
800106b8:	3c058001 	lui	a1,0x8001
800106bc:	24a5235c 	addiu	a1,a1,9052
800106c0:	0280f809 	jalr	s4
800106c4:	24060001 	li	a2,1
800106c8:	8fbf041c 	lw	ra,1052(sp)
800106cc:	8fb40418 	lw	s4,1048(sp)
800106d0:	8fb30414 	lw	s3,1044(sp)
800106d4:	8fb20410 	lw	s2,1040(sp)
800106d8:	8fb1040c 	lw	s1,1036(sp)
800106dc:	8fb00408 	lw	s0,1032(sp)
800106e0:	03e00008 	jr	ra
800106e4:	27bd0420 	addiu	sp,sp,1056
800106e8:	1462fed5 	bne	v1,v0,80010240 <lp_Print+0x40>
800106ec:	24030025 	li	v1,37
800106f0:	1000fedc 	b	80010264 <lp_Print+0x64>
800106f4:	00a08021 	move	s0,a1

800106f8 <PrintChar>:
800106f8:	00052e00 	sll	a1,a1,0x18
800106fc:	00052e03 	sra	a1,a1,0x18
80010700:	0006182a 	slt	v1,zero,a2
80010704:	24020001 	li	v0,1
80010708:	10e00015 	beqz	a3,80010760 <PrintChar+0x68>
8001070c:	0043300a 	movz	a2,v0,v1
80010710:	28c20002 	slti	v0,a2,2
80010714:	14400016 	bnez	v0,80010770 <PrintChar+0x78>
80010718:	a0850000 	sb	a1,0(a0)
8001071c:	24030001 	li	v1,1
80010720:	24050020 	li	a1,32
80010724:	00831021 	addu	v0,a0,v1
80010728:	24630001 	addiu	v1,v1,1
8001072c:	10c30010 	beq	a2,v1,80010770 <PrintChar+0x78>
80010730:	a0450000 	sb	a1,0(v0)
80010734:	1000fffc 	b	80010728 <PrintChar+0x30>
80010738:	00831021 	addu	v0,a0,v1
8001073c:	00001821 	move	v1,zero
80010740:	24080020 	li	t0,32
80010744:	00641021 	addu	v0,v1,a0
80010748:	24630001 	addiu	v1,v1,1
8001074c:	1467fffd 	bne	v1,a3,80010744 <PrintChar+0x4c>
80010750:	a0480000 	sb	t0,0(v0)
80010754:	00c41021 	addu	v0,a2,a0
80010758:	10000005 	b	80010770 <PrintChar+0x78>
8001075c:	a045ffff 	sb	a1,-1(v0)
80010760:	24c7ffff 	addiu	a3,a2,-1
80010764:	1ce0fff5 	bgtz	a3,8001073c <PrintChar+0x44>
80010768:	00c41021 	addu	v0,a2,a0
8001076c:	a045ffff 	sb	a1,-1(v0)
80010770:	03e00008 	jr	ra
80010774:	00c01021 	move	v0,a2

80010778 <PrintString>:
80010778:	80a20000 	lb	v0,0(a1)
8001077c:	14400003 	bnez	v0,8001078c <PrintString+0x14>
80010780:	24a30001 	addiu	v1,a1,1
80010784:	10000006 	b	800107a0 <PrintString+0x28>
80010788:	00004021 	move	t0,zero
8001078c:	00004021 	move	t0,zero
80010790:	25080001 	addiu	t0,t0,1
80010794:	80620000 	lb	v0,0(v1)
80010798:	1440fffd 	bnez	v0,80010790 <PrintString+0x18>
8001079c:	24630001 	addiu	v1,v1,1
800107a0:	00c8102a 	slt	v0,a2,t0
800107a4:	14e00030 	bnez	a3,80010868 <PrintString+0xf0>
800107a8:	0102300b 	movn	a2,t0,v0
800107ac:	1000002a 	b	80010858 <PrintString+0xe0>
800107b0:	00c83823 	subu	a3,a2,t0
800107b4:	00003821 	move	a3,zero
800107b8:	00871021 	addu	v0,a0,a3
800107bc:	00a71821 	addu	v1,a1,a3
800107c0:	90630000 	lbu	v1,0(v1)
800107c4:	24e70001 	addiu	a3,a3,1
800107c8:	1507fffb 	bne	t0,a3,800107b8 <PrintString+0x40>
800107cc:	a0430000 	sb	v1,0(v0)
800107d0:	0106102a 	slt	v0,t0,a2
800107d4:	10400028 	beqz	v0,80010878 <PrintString+0x100>
800107d8:	00001821 	move	v1,zero
800107dc:	00881021 	addu	v0,a0,t0
800107e0:	24050020 	li	a1,32
800107e4:	00c82023 	subu	a0,a2,t0
800107e8:	a0450000 	sb	a1,0(v0)
800107ec:	24630001 	addiu	v1,v1,1
800107f0:	10640021 	beq	v1,a0,80010878 <PrintString+0x100>
800107f4:	24420001 	addiu	v0,v0,1
800107f8:	1000fffc 	b	800107ec <PrintString+0x74>
800107fc:	a0450000 	sb	a1,0(v0)
80010800:	00001821 	move	v1,zero
80010804:	24090020 	li	t1,32
80010808:	00831021 	addu	v0,a0,v1
8001080c:	24630001 	addiu	v1,v1,1
80010810:	1467fffd 	bne	v1,a3,80010808 <PrintString+0x90>
80010814:	a0490000 	sb	t1,0(v0)
80010818:	00e6102a 	slt	v0,a3,a2
8001081c:	10400016 	beqz	v0,80010878 <PrintString+0x100>
80010820:	00872021 	addu	a0,a0,a3
80010824:	00e61023 	subu	v0,a3,a2
80010828:	01021021 	addu	v0,t0,v0
8001082c:	00a21821 	addu	v1,a1,v0
80010830:	00002821 	move	a1,zero
80010834:	00c73823 	subu	a3,a2,a3
80010838:	90620000 	lbu	v0,0(v1)
8001083c:	a0820000 	sb	v0,0(a0)
80010840:	24a50001 	addiu	a1,a1,1
80010844:	24630001 	addiu	v1,v1,1
80010848:	10a7000b 	beq	a1,a3,80010878 <PrintString+0x100>
8001084c:	24840001 	addiu	a0,a0,1
80010850:	1000fffa 	b	8001083c <PrintString+0xc4>
80010854:	90620000 	lbu	v0,0(v1)
80010858:	1ce0ffe9 	bgtz	a3,80010800 <PrintString+0x88>
8001085c:	00e6102a 	slt	v0,a3,a2
80010860:	1000ffee 	b	8001081c <PrintString+0xa4>
80010864:	00000000 	nop
80010868:	1d00ffd2 	bgtz	t0,800107b4 <PrintString+0x3c>
8001086c:	0106102a 	slt	v0,t0,a2
80010870:	1000ffd8 	b	800107d4 <PrintString+0x5c>
80010874:	00000000 	nop
80010878:	03e00008 	jr	ra
8001087c:	00c01021 	move	v0,a2

80010880 <PrintNum>:
80010880:	8fa90010 	lw	t1,16(sp)
80010884:	8fac0014 	lw	t4,20(sp)
80010888:	8fab001c 	lw	t3,28(sp)
8001088c:	83aa001b 	lb	t2,27(sp)
80010890:	00804021 	move	t0,a0
80010894:	00a6001b 	divu	zero,a1,a2
80010898:	00c001f4 	teq	a2,zero,0x7
8001089c:	00001810 	mfhi	v1
800108a0:	2862000a 	slti	v0,v1,10
800108a4:	10400004 	beqz	v0,800108b8 <PrintNum+0x38>
800108a8:	24620030 	addiu	v0,v1,48
800108ac:	a1020000 	sb	v0,0(t0)
800108b0:	1000000b 	b	800108e0 <PrintNum+0x60>
800108b4:	25080001 	addiu	t0,t0,1
800108b8:	11600005 	beqz	t3,800108d0 <PrintNum+0x50>
800108bc:	24620057 	addiu	v0,v1,87
800108c0:	24620037 	addiu	v0,v1,55
800108c4:	a1020000 	sb	v0,0(t0)
800108c8:	10000003 	b	800108d8 <PrintNum+0x58>
800108cc:	25080001 	addiu	t0,t0,1
800108d0:	a1020000 	sb	v0,0(t0)
800108d4:	25080001 	addiu	t0,t0,1
800108d8:	00a6001b 	divu	zero,a1,a2
800108dc:	00c001f4 	teq	a2,zero,0x7
800108e0:	00002812 	mflo	a1
800108e4:	14a0ffeb 	bnez	a1,80010894 <PrintNum+0x14>
800108e8:	00000000 	nop
800108ec:	10e00005 	beqz	a3,80010904 <PrintNum+0x84>
800108f0:	01043023 	subu	a2,t0,a0
800108f4:	2402002d 	li	v0,45
800108f8:	a1020000 	sb	v0,0(t0)
800108fc:	25080001 	addiu	t0,t0,1
80010900:	01043023 	subu	a2,t0,a0
80010904:	0126102a 	slt	v0,t1,a2
80010908:	00c2480b 	movn	t1,a2,v0
8001090c:	24020020 	li	v0,32
80010910:	10e00032 	beqz	a3,800109dc <PrintNum+0x15c>
80010914:	004c500b 	movn	t2,v0,t4
80010918:	15800031 	bnez	t4,800109e0 <PrintNum+0x160>
8001091c:	00c9102a 	slt	v0,a2,t1
80010920:	24020030 	li	v0,48
80010924:	1542002e 	bne	t2,v0,800109e0 <PrintNum+0x160>
80010928:	00c9102a 	slt	v0,a2,t1
8001092c:	24c6ffff 	addiu	a2,a2,-1
80010930:	2528ffff 	addiu	t0,t1,-1
80010934:	00c8102a 	slt	v0,a2,t0
80010938:	10400008 	beqz	v0,8001095c <PrintNum+0xdc>
8001093c:	01061023 	subu	v0,t0,a2
80010940:	00861821 	addu	v1,a0,a2
80010944:	00002821 	move	a1,zero
80010948:	24070030 	li	a3,48
8001094c:	a0670000 	sb	a3,0(v1)
80010950:	24a50001 	addiu	a1,a1,1
80010954:	14a2fffd 	bne	a1,v0,8001094c <PrintNum+0xcc>
80010958:	24630001 	addiu	v1,v1,1
8001095c:	00891821 	addu	v1,a0,t1
80010960:	2402002d 	li	v0,45
80010964:	1000000d 	b	8001099c <PrintNum+0x11c>
80010968:	a062ffff 	sb	v0,-1(v1)
8001096c:	a0aa0000 	sb	t2,0(a1)
80010970:	24630001 	addiu	v1,v1,1
80010974:	01261023 	subu	v0,t1,a2
80010978:	1462fffc 	bne	v1,v0,8001096c <PrintNum+0xec>
8001097c:	24a50001 	addiu	a1,a1,1
80010980:	11800006 	beqz	t4,8001099c <PrintNum+0x11c>
80010984:	00000000 	nop
80010988:	24c6ffff 	addiu	a2,a2,-1
8001098c:	1cc00005 	bgtz	a2,800109a4 <PrintNum+0x124>
80010990:	00003821 	move	a3,zero
80010994:	03e00008 	jr	ra
80010998:	01201021 	move	v0,t1
8001099c:	1000fffb 	b	8001098c <PrintNum+0x10c>
800109a0:	2526ffff 	addiu	a2,t1,-1
800109a4:	00802821 	move	a1,a0
800109a8:	00862021 	addu	a0,a0,a2
800109ac:	80a20000 	lb	v0,0(a1)
800109b0:	90830000 	lbu	v1,0(a0)
800109b4:	a0a30000 	sb	v1,0(a1)
800109b8:	a0820000 	sb	v0,0(a0)
800109bc:	24e70001 	addiu	a3,a3,1
800109c0:	24c6ffff 	addiu	a2,a2,-1
800109c4:	24a50001 	addiu	a1,a1,1
800109c8:	00e6102a 	slt	v0,a3,a2
800109cc:	10400009 	beqz	v0,800109f4 <PrintNum+0x174>
800109d0:	2484ffff 	addiu	a0,a0,-1
800109d4:	1000fff6 	b	800109b0 <PrintNum+0x130>
800109d8:	80a20000 	lb	v0,0(a1)
800109dc:	00c9102a 	slt	v0,a2,t1
800109e0:	1040ffe7 	beqz	v0,80010980 <PrintNum+0x100>
800109e4:	00000000 	nop
800109e8:	00862821 	addu	a1,a0,a2
800109ec:	1000ffdf 	b	8001096c <PrintNum+0xec>
800109f0:	00001821 	move	v1,zero
800109f4:	01201021 	move	v0,t1
800109f8:	03e00008 	jr	ra
800109fc:	00000000 	nop

80010a00 <myoutput>:
80010a00:	27bdffe0 	addiu	sp,sp,-32
80010a04:	afbf001c 	sw	ra,28(sp)
80010a08:	afb20018 	sw	s2,24(sp)
80010a0c:	afb10014 	sw	s1,20(sp)
80010a10:	afb00010 	sw	s0,16(sp)
80010a14:	24020001 	li	v0,1
80010a18:	14c20013 	bne	a2,v0,80010a68 <myoutput+0x68>
80010a1c:	00c09021 	move	s2,a2
80010a20:	80a20000 	lb	v0,0(a1)
80010a24:	14400013 	bnez	v0,80010a74 <myoutput+0x74>
80010a28:	00a08021 	move	s0,a1
80010a2c:	10000014 	b	80010a80 <myoutput+0x80>
80010a30:	8fbf001c 	lw	ra,28(sp)
80010a34:	0c004064 	jal	80010190 <printcharc>
80010a38:	82040000 	lb	a0,0(s0)
80010a3c:	82030000 	lb	v1,0(s0)
80010a40:	2402000a 	li	v0,10
80010a44:	14620003 	bne	v1,v0,80010a54 <myoutput+0x54>
80010a48:	00000000 	nop
80010a4c:	0c004064 	jal	80010190 <printcharc>
80010a50:	2404000a 	li	a0,10
80010a54:	26310001 	addiu	s1,s1,1
80010a58:	12510008 	beq	s2,s1,80010a7c <myoutput+0x7c>
80010a5c:	26100001 	addiu	s0,s0,1
80010a60:	1000fff4 	b	80010a34 <myoutput+0x34>
80010a64:	00000000 	nop
80010a68:	18c00005 	blez	a2,80010a80 <myoutput+0x80>
80010a6c:	8fbf001c 	lw	ra,28(sp)
80010a70:	00a08021 	move	s0,a1
80010a74:	1000ffef 	b	80010a34 <myoutput+0x34>
80010a78:	00008821 	move	s1,zero
80010a7c:	8fbf001c 	lw	ra,28(sp)
80010a80:	8fb20018 	lw	s2,24(sp)
80010a84:	8fb10014 	lw	s1,20(sp)
80010a88:	8fb00010 	lw	s0,16(sp)
80010a8c:	03e00008 	jr	ra
80010a90:	27bd0020 	addiu	sp,sp,32

80010a94 <printf>:
80010a94:	27bdffe0 	addiu	sp,sp,-32
80010a98:	afbf0018 	sw	ra,24(sp)
80010a9c:	afa50024 	sw	a1,36(sp)
80010aa0:	afa60028 	sw	a2,40(sp)
80010aa4:	afa7002c 	sw	a3,44(sp)
80010aa8:	00803021 	move	a2,a0
80010aac:	27a70024 	addiu	a3,sp,36
80010ab0:	afa70010 	sw	a3,16(sp)
80010ab4:	3c048001 	lui	a0,0x8001
80010ab8:	24840a00 	addiu	a0,a0,2560
80010abc:	0c004080 	jal	80010200 <lp_Print>
80010ac0:	00002821 	move	a1,zero
80010ac4:	8fbf0018 	lw	ra,24(sp)
80010ac8:	03e00008 	jr	ra
80010acc:	27bd0020 	addiu	sp,sp,32

80010ad0 <_panic>:
80010ad0:	27bdffe0 	addiu	sp,sp,-32
80010ad4:	afbf001c 	sw	ra,28(sp)
80010ad8:	afb00018 	sw	s0,24(sp)
80010adc:	00801821 	move	v1,a0
80010ae0:	00a04021 	move	t0,a1
80010ae4:	afa7002c 	sw	a3,44(sp)
80010ae8:	00c08021 	move	s0,a2
80010aec:	27a2002c 	addiu	v0,sp,44
80010af0:	afa20010 	sw	v0,16(sp)
80010af4:	3c048001 	lui	a0,0x8001
80010af8:	248425dc 	addiu	a0,a0,9692
80010afc:	00602821 	move	a1,v1
80010b00:	0c0042a5 	jal	80010a94 <printf>
80010b04:	01003021 	move	a2,t0
80010b08:	3c048001 	lui	a0,0x8001
80010b0c:	24840a00 	addiu	a0,a0,2560
80010b10:	00002821 	move	a1,zero
80010b14:	02003021 	move	a2,s0
80010b18:	0c004080 	jal	80010200 <lp_Print>
80010b1c:	8fa70010 	lw	a3,16(sp)
80010b20:	3c048001 	lui	a0,0x8001
80010b24:	0c0042a5 	jal	80010a94 <printf>
80010b28:	248425f0 	addiu	a0,a0,9712
80010b2c:	1000ffff 	b	80010b2c <_panic+0x5c>
80010b30:	00000000 	nop
	...

80010b40 <trap_init>:
80010b40:	27bdffe0 	addiu	sp,sp,-32
80010b44:	afbf001c 	sw	ra,28(sp)
80010b48:	afb20018 	sw	s2,24(sp)
80010b4c:	afb10014 	sw	s1,20(sp)
80010b50:	afb00010 	sw	s0,16(sp)
80010b54:	00008021 	move	s0,zero
80010b58:	3c128001 	lui	s2,0x8001
80010b5c:	24110020 	li	s1,32
80010b60:	02002021 	move	a0,s0
80010b64:	0c0042ef 	jal	80010bbc <set_except_vector>
80010b68:	26452f20 	addiu	a1,s2,12064
80010b6c:	26100001 	addiu	s0,s0,1
80010b70:	1611fffc 	bne	s0,s1,80010b64 <trap_init+0x24>
80010b74:	02002021 	move	a0,s0
80010b78:	00002021 	move	a0,zero
80010b7c:	3c058001 	lui	a1,0x8001
80010b80:	0c0042ef 	jal	80010bbc <set_except_vector>
80010b84:	24a52ce0 	addiu	a1,a1,11488
80010b88:	24040002 	li	a0,2
80010b8c:	3c108001 	lui	s0,0x8001
80010b90:	0c0042ef 	jal	80010bbc <set_except_vector>
80010b94:	26053060 	addiu	a1,s0,12384
80010b98:	24040003 	li	a0,3
80010b9c:	0c0042ef 	jal	80010bbc <set_except_vector>
80010ba0:	26053060 	addiu	a1,s0,12384
80010ba4:	8fbf001c 	lw	ra,28(sp)
80010ba8:	8fb20018 	lw	s2,24(sp)
80010bac:	8fb10014 	lw	s1,20(sp)
80010bb0:	8fb00010 	lw	s0,16(sp)
80010bb4:	03e00008 	jr	ra
80010bb8:	27bd0020 	addiu	sp,sp,32

80010bbc <set_except_vector>:
80010bbc:	00042080 	sll	a0,a0,0x2
80010bc0:	3c028001 	lui	v0,0x8001
80010bc4:	244231c0 	addiu	v0,v0,12736
80010bc8:	00822021 	addu	a0,a0,v0
80010bcc:	8c820000 	lw	v0,0(a0)
80010bd0:	03e00008 	jr	ra
80010bd4:	ac850000 	sw	a1,0(a0)
	...

80010be0 <mips_detect_memory>:
80010be0:	27bdffe0 	addiu	sp,sp,-32
80010be4:	afbf0018 	sw	ra,24(sp)
80010be8:	afb10014 	sw	s1,20(sp)
80010bec:	afb00010 	sw	s0,16(sp)
80010bf0:	3c118001 	lui	s1,0x8001
80010bf4:	3c030400 	lui	v1,0x400
80010bf8:	ae23324c 	sw	v1,12876(s1)
80010bfc:	3c108001 	lui	s0,0x8001
80010c00:	ae003250 	sw	zero,12880(s0)
80010c04:	3c028001 	lui	v0,0x8001
80010c08:	ac433248 	sw	v1,12872(v0)
80010c0c:	24034000 	li	v1,16384
80010c10:	3c028001 	lui	v0,0x8001
80010c14:	ac433240 	sw	v1,12864(v0)
80010c18:	3c048001 	lui	a0,0x8001
80010c1c:	248425f4 	addiu	a0,a0,9716
80010c20:	0c0042a5 	jal	80010a94 <printf>
80010c24:	3c050001 	lui	a1,0x1
80010c28:	8e25324c 	lw	a1,12876(s1)
80010c2c:	8e063250 	lw	a2,12880(s0)
80010c30:	3c048001 	lui	a0,0x8001
80010c34:	24842618 	addiu	a0,a0,9752
80010c38:	00052a82 	srl	a1,a1,0xa
80010c3c:	0c0042a5 	jal	80010a94 <printf>
80010c40:	00063282 	srl	a2,a2,0xa
80010c44:	8fbf0018 	lw	ra,24(sp)
80010c48:	8fb10014 	lw	s1,20(sp)
80010c4c:	8fb00010 	lw	s0,16(sp)
80010c50:	03e00008 	jr	ra
80010c54:	27bd0020 	addiu	sp,sp,32

80010c58 <alloc>:
80010c58:	27bdffd8 	addiu	sp,sp,-40
80010c5c:	afbf0020 	sw	ra,32(sp)
80010c60:	afb3001c 	sw	s3,28(sp)
80010c64:	afb20018 	sw	s2,24(sp)
80010c68:	afb10014 	sw	s1,20(sp)
80010c6c:	afb00010 	sw	s0,16(sp)
80010c70:	00809021 	move	s2,a0
80010c74:	00a08821 	move	s1,a1
80010c78:	3c038001 	lui	v1,0x8001
80010c7c:	8c6231b0 	lw	v0,12720(v1)
80010c80:	14400004 	bnez	v0,80010c94 <alloc+0x3c>
80010c84:	00c09821 	move	s3,a2
80010c88:	3c028040 	lui	v0,0x8040
80010c8c:	24420000 	addiu	v0,v0,0
80010c90:	ac6231b0 	sw	v0,12720(v1)
80010c94:	3c108001 	lui	s0,0x8001
80010c98:	3c048001 	lui	a0,0x8001
80010c9c:	24842634 	addiu	a0,a0,9780
80010ca0:	0c0042a5 	jal	80010a94 <printf>
80010ca4:	8e0531b0 	lw	a1,12720(s0)
80010ca8:	8e0231b0 	lw	v0,12720(s0)
80010cac:	02221021 	addu	v0,s1,v0
80010cb0:	2442ffff 	addiu	v0,v0,-1
80010cb4:	00111823 	negu	v1,s1
80010cb8:	00438824 	and	s1,v0,v1
80010cbc:	02321021 	addu	v0,s1,s2
80010cc0:	12600004 	beqz	s3,80010cd4 <alloc+0x7c>
80010cc4:	ae0231b0 	sw	v0,12720(s0)
80010cc8:	02202021 	move	a0,s1
80010ccc:	0c004050 	jal	80010140 <bzero>
80010cd0:	02402821 	move	a1,s2
80010cd4:	02201021 	move	v0,s1
80010cd8:	8fbf0020 	lw	ra,32(sp)
80010cdc:	8fb3001c 	lw	s3,28(sp)
80010ce0:	8fb20018 	lw	s2,24(sp)
80010ce4:	8fb10014 	lw	s1,20(sp)
80010ce8:	8fb00010 	lw	s0,16(sp)
80010cec:	03e00008 	jr	ra
80010cf0:	27bd0028 	addiu	sp,sp,40

80010cf4 <boot_pgdir_walk>:
80010cf4:	27bdffe0 	addiu	sp,sp,-32
80010cf8:	afbf001c 	sw	ra,28(sp)
80010cfc:	afb20018 	sw	s2,24(sp)
80010d00:	afb10014 	sw	s1,20(sp)
80010d04:	afb00010 	sw	s0,16(sp)
80010d08:	00051582 	srl	v0,a1,0x16
80010d0c:	00021080 	sll	v0,v0,0x2
80010d10:	00448821 	addu	s1,v0,a0
80010d14:	8e240000 	lw	a0,0(s1)
80010d18:	2402f000 	li	v0,-4096
80010d1c:	00823824 	and	a3,a0,v0
80010d20:	00071302 	srl	v0,a3,0xc
80010d24:	3c038001 	lui	v1,0x8001
80010d28:	8c633240 	lw	v1,12864(v1)
80010d2c:	0043102b 	sltu	v0,v0,v1
80010d30:	14400007 	bnez	v0,80010d50 <boot_pgdir_walk+0x5c>
80010d34:	00a09021 	move	s2,a1
80010d38:	3c048001 	lui	a0,0x8001
80010d3c:	2484264c 	addiu	a0,a0,9804
80010d40:	24050057 	li	a1,87
80010d44:	3c068001 	lui	a2,0x8001
80010d48:	0c0042b4 	jal	80010ad0 <_panic>
80010d4c:	24c62654 	addiu	a2,a2,9812
80010d50:	3c028000 	lui	v0,0x8000
80010d54:	14800019 	bnez	a0,80010dbc <boot_pgdir_walk+0xc8>
80010d58:	00e28021 	addu	s0,a3,v0
80010d5c:	10c0001a 	beqz	a2,80010dc8 <boot_pgdir_walk+0xd4>
80010d60:	00001021 	move	v0,zero
80010d64:	24041000 	li	a0,4096
80010d68:	24051000 	li	a1,4096
80010d6c:	0c004316 	jal	80010c58 <alloc>
80010d70:	24060001 	li	a2,1
80010d74:	00408021 	move	s0,v0
80010d78:	3c048001 	lui	a0,0x8001
80010d7c:	24842678 	addiu	a0,a0,9848
80010d80:	3c028001 	lui	v0,0x8001
80010d84:	0c0042a5 	jal	80010a94 <printf>
80010d88:	8c4531b0 	lw	a1,12720(v0)
80010d8c:	06000008 	bltz	s0,80010db0 <boot_pgdir_walk+0xbc>
80010d90:	3c028000 	lui	v0,0x8000
80010d94:	3c048001 	lui	a0,0x8001
80010d98:	2484264c 	addiu	a0,a0,9804
80010d9c:	24050062 	li	a1,98
80010da0:	3c068001 	lui	a2,0x8001
80010da4:	24c626a8 	addiu	a2,a2,9896
80010da8:	0c0042b4 	jal	80010ad0 <_panic>
80010dac:	02003821 	move	a3,s0
80010db0:	02021021 	addu	v0,s0,v0
80010db4:	34420600 	ori	v0,v0,0x600
80010db8:	ae220000 	sw	v0,0(s1)
80010dbc:	00121282 	srl	v0,s2,0xa
80010dc0:	30420ffc 	andi	v0,v0,0xffc
80010dc4:	02021021 	addu	v0,s0,v0
80010dc8:	8fbf001c 	lw	ra,28(sp)
80010dcc:	8fb20018 	lw	s2,24(sp)
80010dd0:	8fb10014 	lw	s1,20(sp)
80010dd4:	8fb00010 	lw	s0,16(sp)
80010dd8:	03e00008 	jr	ra
80010ddc:	27bd0020 	addiu	sp,sp,32

80010de0 <boot_map_segment>:
80010de0:	27bdffd0 	addiu	sp,sp,-48
80010de4:	afbf0028 	sw	ra,40(sp)
80010de8:	afb50024 	sw	s5,36(sp)
80010dec:	afb40020 	sw	s4,32(sp)
80010df0:	afb3001c 	sw	s3,28(sp)
80010df4:	afb20018 	sw	s2,24(sp)
80010df8:	afb10014 	sw	s1,20(sp)
80010dfc:	afb00010 	sw	s0,16(sp)
80010e00:	0080a821 	move	s5,a0
80010e04:	00a08821 	move	s1,a1
80010e08:	00e08021 	move	s0,a3
80010e0c:	00063302 	srl	a2,a2,0xc
80010e10:	24d30001 	addiu	s3,a2,1
80010e14:	1a60000c 	blez	s3,80010e48 <boot_map_segment+0x68>
80010e18:	8fb40040 	lw	s4,64(sp)
80010e1c:	00009021 	move	s2,zero
80010e20:	02a02021 	move	a0,s5
80010e24:	02202821 	move	a1,s1
80010e28:	0c00433d 	jal	80010cf4 <boot_pgdir_walk>
80010e2c:	24060001 	li	a2,1
80010e30:	02141825 	or	v1,s0,s4
80010e34:	ac430000 	sw	v1,0(v0)
80010e38:	26311000 	addiu	s1,s1,4096
80010e3c:	26520001 	addiu	s2,s2,1
80010e40:	1672fff7 	bne	s3,s2,80010e20 <boot_map_segment+0x40>
80010e44:	26101000 	addiu	s0,s0,4096
80010e48:	8fbf0028 	lw	ra,40(sp)
80010e4c:	8fb50024 	lw	s5,36(sp)
80010e50:	8fb40020 	lw	s4,32(sp)
80010e54:	8fb3001c 	lw	s3,28(sp)
80010e58:	8fb20018 	lw	s2,24(sp)
80010e5c:	8fb10014 	lw	s1,20(sp)
80010e60:	8fb00010 	lw	s0,16(sp)
80010e64:	03e00008 	jr	ra
80010e68:	27bd0030 	addiu	sp,sp,48

80010e6c <mips_vm_init>:
80010e6c:	27bdffd8 	addiu	sp,sp,-40
80010e70:	afbf0020 	sw	ra,32(sp)
80010e74:	afb1001c 	sw	s1,28(sp)
80010e78:	afb00018 	sw	s0,24(sp)
80010e7c:	24041000 	li	a0,4096
80010e80:	24051000 	li	a1,4096
80010e84:	0c004316 	jal	80010c58 <alloc>
80010e88:	24060001 	li	a2,1
80010e8c:	00408021 	move	s0,v0
80010e90:	3c118001 	lui	s1,0x8001
80010e94:	3c048001 	lui	a0,0x8001
80010e98:	248426cc 	addiu	a0,a0,9932
80010e9c:	0c0042a5 	jal	80010a94 <printf>
80010ea0:	8e2531b0 	lw	a1,12720(s1)
80010ea4:	8e030000 	lw	v1,0(s0)
80010ea8:	3c028001 	lui	v0,0x8001
80010eac:	ac432be0 	sw	v1,11232(v0)
80010eb0:	3c028001 	lui	v0,0x8001
80010eb4:	ac503244 	sw	s0,12868(v0)
80010eb8:	3c028001 	lui	v0,0x8001
80010ebc:	8c443240 	lw	a0,12864(v0)
80010ec0:	00041080 	sll	v0,a0,0x2
80010ec4:	00042100 	sll	a0,a0,0x4
80010ec8:	00822023 	subu	a0,a0,v0
80010ecc:	24051000 	li	a1,4096
80010ed0:	0c004316 	jal	80010c58 <alloc>
80010ed4:	24060001 	li	a2,1
80010ed8:	3c038001 	lui	v1,0x8001
80010edc:	ac623254 	sw	v0,12884(v1)
80010ee0:	3c048001 	lui	a0,0x8001
80010ee4:	248426f8 	addiu	a0,a0,9976
80010ee8:	0c0042a5 	jal	80010a94 <printf>
80010eec:	8e2531b0 	lw	a1,12720(s1)
80010ef0:	02002021 	move	a0,s0
80010ef4:	3c058000 	lui	a1,0x8000
80010ef8:	0c00433d 	jal	80010cf4 <boot_pgdir_walk>
80010efc:	24060001 	li	a2,1
80010f00:	afa00010 	sw	zero,16(sp)
80010f04:	02002021 	move	a0,s0
80010f08:	3c058000 	lui	a1,0x8000
80010f0c:	3c060040 	lui	a2,0x40
80010f10:	0c004378 	jal	80010de0 <boot_map_segment>
80010f14:	00003821 	move	a3,zero
80010f18:	3c048001 	lui	a0,0x8001
80010f1c:	0c0042a5 	jal	80010a94 <printf>
80010f20:	24842718 	addiu	a0,a0,10008
80010f24:	8fbf0020 	lw	ra,32(sp)
80010f28:	8fb1001c 	lw	s1,28(sp)
80010f2c:	8fb00018 	lw	s0,24(sp)
80010f30:	03e00008 	jr	ra
80010f34:	27bd0028 	addiu	sp,sp,40

80010f38 <page_init>:
80010f38:	27bdffe0 	addiu	sp,sp,-32
80010f3c:	afbf0018 	sw	ra,24(sp)
80010f40:	afb10014 	sw	s1,20(sp)
80010f44:	afb00010 	sw	s0,16(sp)
80010f48:	3c028001 	lui	v0,0x8001
80010f4c:	ac4031b4 	sw	zero,12724(v0)
80010f50:	3c108001 	lui	s0,0x8001
80010f54:	3c118001 	lui	s1,0x8001
80010f58:	26242738 	addiu	a0,s1,10040
80010f5c:	0c0042a5 	jal	80010a94 <printf>
80010f60:	8e0531b0 	lw	a1,12720(s0)
80010f64:	8e0531b0 	lw	a1,12720(s0)
80010f68:	24a50fff 	addiu	a1,a1,4095
80010f6c:	2402f000 	li	v0,-4096
80010f70:	00a22824 	and	a1,a1,v0
80010f74:	ae0531b0 	sw	a1,12720(s0)
80010f78:	0c0042a5 	jal	80010a94 <printf>
80010f7c:	26242738 	addiu	a0,s1,10040
80010f80:	8e0731b0 	lw	a3,12720(s0)
80010f84:	04e00060 	bltz	a3,80011108 <page_init+0x1d0>
80010f88:	3c028000 	lui	v0,0x8000
80010f8c:	1000000c 	b	80010fc0 <page_init+0x88>
80010f90:	3c048001 	lui	a0,0x8001
80010f94:	00002821 	move	a1,zero
80010f98:	3c028001 	lui	v0,0x8001
80010f9c:	8c423254 	lw	v0,12884(v0)
80010fa0:	00441021 	addu	v0,v0,a0
80010fa4:	24030001 	li	v1,1
80010fa8:	a4430008 	sh	v1,8(v0)
80010fac:	3c028001 	lui	v0,0x8001
80010fb0:	8c4731b0 	lw	a3,12720(v0)
80010fb4:	04e00007 	bltz	a3,80010fd4 <page_init+0x9c>
80010fb8:	24a50001 	addiu	a1,a1,1
80010fbc:	3c048001 	lui	a0,0x8001
80010fc0:	2484264c 	addiu	a0,a0,9804
80010fc4:	240500c5 	li	a1,197
80010fc8:	3c068001 	lui	a2,0x8001
80010fcc:	0c0042b4 	jal	80010ad0 <_panic>
80010fd0:	24c626a8 	addiu	a2,a2,9896
80010fd4:	3c028000 	lui	v0,0x8000
80010fd8:	00e21021 	addu	v0,a3,v0
80010fdc:	00021302 	srl	v0,v0,0xc
80010fe0:	00a2102b 	sltu	v0,a1,v0
80010fe4:	1440ffec 	bnez	v0,80010f98 <page_init+0x60>
80010fe8:	2484000c 	addiu	a0,a0,12
80010fec:	3c048001 	lui	a0,0x8001
80010ff0:	24842748 	addiu	a0,a0,10056
80010ff4:	0c0042a5 	jal	80010a94 <printf>
80010ff8:	24a5ffff 	addiu	a1,a1,-1
80010ffc:	3c028001 	lui	v0,0x8001
80011000:	8c4731b0 	lw	a3,12720(v0)
80011004:	04e00007 	bltz	a3,80011024 <page_init+0xec>
80011008:	3c028000 	lui	v0,0x8000
8001100c:	3c048001 	lui	a0,0x8001
80011010:	2484264c 	addiu	a0,a0,9804
80011014:	240500c8 	li	a1,200
80011018:	3c068001 	lui	a2,0x8001
8001101c:	0c0042b4 	jal	80010ad0 <_panic>
80011020:	24c626a8 	addiu	a2,a2,9896
80011024:	00e21021 	addu	v0,a3,v0
80011028:	00023b02 	srl	a3,v0,0xc
8001102c:	3c028001 	lui	v0,0x8001
80011030:	8c433240 	lw	v1,12864(v0)
80011034:	00e3102b 	sltu	v0,a3,v1
80011038:	1040001f 	beqz	v0,800110b8 <page_init+0x180>
8001103c:	3c028001 	lui	v0,0x8001
80011040:	00071080 	sll	v0,a3,0x2
80011044:	00071900 	sll	v1,a3,0x4
80011048:	00622023 	subu	a0,v1,v0
8001104c:	3c058001 	lui	a1,0x8001
80011050:	3c088001 	lui	t0,0x8001
80011054:	250a31b4 	addiu	t2,t0,12724
80011058:	3c098001 	lui	t1,0x8001
8001105c:	00803021 	move	a2,a0
80011060:	8ca23254 	lw	v0,12884(a1)
80011064:	00441021 	addu	v0,v0,a0
80011068:	a4400008 	sh	zero,8(v0)
8001106c:	8d0331b4 	lw	v1,12724(t0)
80011070:	8ca23254 	lw	v0,12884(a1)
80011074:	00441021 	addu	v0,v0,a0
80011078:	10600005 	beqz	v1,80011090 <page_init+0x158>
8001107c:	ac430000 	sw	v1,0(v0)
80011080:	8d0331b4 	lw	v1,12724(t0)
80011084:	8ca23254 	lw	v0,12884(a1)
80011088:	00821021 	addu	v0,a0,v0
8001108c:	ac620004 	sw	v0,4(v1)
80011090:	8ca23254 	lw	v0,12884(a1)
80011094:	00c21021 	addu	v0,a2,v0
80011098:	ad0231b4 	sw	v0,12724(t0)
8001109c:	ac4a0004 	sw	t2,4(v0)
800110a0:	24e70001 	addiu	a3,a3,1
800110a4:	8d233240 	lw	v1,12864(t1)
800110a8:	00e3102b 	sltu	v0,a3,v1
800110ac:	1440ffeb 	bnez	v0,8001105c <page_init+0x124>
800110b0:	2484000c 	addiu	a0,a0,12
800110b4:	3c028001 	lui	v0,0x8001
800110b8:	8c4731b0 	lw	a3,12720(v0)
800110bc:	04e00007 	bltz	a3,800110dc <page_init+0x1a4>
800110c0:	3c048001 	lui	a0,0x8001
800110c4:	3c048001 	lui	a0,0x8001
800110c8:	2484264c 	addiu	a0,a0,9804
800110cc:	240500cd 	li	a1,205
800110d0:	3c068001 	lui	a2,0x8001
800110d4:	0c0042b4 	jal	80010ad0 <_panic>
800110d8:	24c626a8 	addiu	a2,a2,9896
800110dc:	3c058000 	lui	a1,0x8000
800110e0:	00e52821 	addu	a1,a3,a1
800110e4:	00052b02 	srl	a1,a1,0xc
800110e8:	24842760 	addiu	a0,a0,10080
800110ec:	0c0042a5 	jal	80010a94 <printf>
800110f0:	00652823 	subu	a1,v1,a1
800110f4:	8fbf0018 	lw	ra,24(sp)
800110f8:	8fb10014 	lw	s1,20(sp)
800110fc:	8fb00010 	lw	s0,16(sp)
80011100:	03e00008 	jr	ra
80011104:	27bd0020 	addiu	sp,sp,32
80011108:	00e21021 	addu	v0,a3,v0
8001110c:	00021302 	srl	v0,v0,0xc
80011110:	1440ffa0 	bnez	v0,80010f94 <page_init+0x5c>
80011114:	00002021 	move	a0,zero
80011118:	1000ffb4 	b	80010fec <page_init+0xb4>
8001111c:	00002821 	move	a1,zero

80011120 <page_initpp>:
80011120:	27bdffe8 	addiu	sp,sp,-24
80011124:	afbf0010 	sw	ra,16(sp)
80011128:	0c004050 	jal	80010140 <bzero>
8001112c:	2405000c 	li	a1,12
80011130:	8fbf0010 	lw	ra,16(sp)
80011134:	03e00008 	jr	ra
80011138:	27bd0018 	addiu	sp,sp,24

8001113c <page_alloc>:
8001113c:	3c028001 	lui	v0,0x8001
80011140:	8c4331b4 	lw	v1,12724(v0)
80011144:	14600003 	bnez	v1,80011154 <page_alloc+0x18>
80011148:	2402fffc 	li	v0,-4
8001114c:	03e00008 	jr	ra
80011150:	00000000 	nop
80011154:	ac830000 	sw	v1,0(a0)
80011158:	94620008 	lhu	v0,8(v1)
8001115c:	24420001 	addiu	v0,v0,1
80011160:	a4620008 	sh	v0,8(v1)
80011164:	8c820000 	lw	v0,0(a0)
80011168:	8c430000 	lw	v1,0(v0)
8001116c:	10600004 	beqz	v1,80011180 <page_alloc+0x44>
80011170:	00000000 	nop
80011174:	8c420004 	lw	v0,4(v0)
80011178:	ac620004 	sw	v0,4(v1)
8001117c:	8c820000 	lw	v0,0(a0)
80011180:	8c430004 	lw	v1,4(v0)
80011184:	8c420000 	lw	v0,0(v0)
80011188:	ac620000 	sw	v0,0(v1)
8001118c:	03e00008 	jr	ra
80011190:	00001021 	move	v0,zero

80011194 <page_free>:
80011194:	3c038001 	lui	v1,0x8001
80011198:	8c6231b4 	lw	v0,12724(v1)
8001119c:	10400003 	beqz	v0,800111ac <page_free+0x18>
800111a0:	ac820000 	sw	v0,0(a0)
800111a4:	8c6231b4 	lw	v0,12724(v1)
800111a8:	ac440004 	sw	a0,4(v0)
800111ac:	3c028001 	lui	v0,0x8001
800111b0:	ac4431b4 	sw	a0,12724(v0)
800111b4:	244231b4 	addiu	v0,v0,12724
800111b8:	03e00008 	jr	ra
800111bc:	ac820004 	sw	v0,4(a0)

800111c0 <page_decref>:
800111c0:	27bdffe8 	addiu	sp,sp,-24
800111c4:	afbf0010 	sw	ra,16(sp)
800111c8:	94820008 	lhu	v0,8(a0)
800111cc:	2442ffff 	addiu	v0,v0,-1
800111d0:	3042ffff 	andi	v0,v0,0xffff
800111d4:	14400003 	bnez	v0,800111e4 <page_decref+0x24>
800111d8:	a4820008 	sh	v0,8(a0)
800111dc:	0c004465 	jal	80011194 <page_free>
800111e0:	00000000 	nop
800111e4:	8fbf0010 	lw	ra,16(sp)
800111e8:	03e00008 	jr	ra
800111ec:	27bd0018 	addiu	sp,sp,24

800111f0 <pgdir_walk>:
800111f0:	27bdffd8 	addiu	sp,sp,-40
800111f4:	afbf0020 	sw	ra,32(sp)
800111f8:	afb1001c 	sw	s1,28(sp)
800111fc:	afb00018 	sw	s0,24(sp)
80011200:	00052d82 	srl	a1,a1,0x16
80011204:	00052880 	sll	a1,a1,0x2
80011208:	00a48821 	addu	s1,a1,a0
8001120c:	8e240000 	lw	a0,0(s1)
80011210:	2402f000 	li	v0,-4096
80011214:	00823824 	and	a3,a0,v0
80011218:	00071302 	srl	v0,a3,0xc
8001121c:	3c038001 	lui	v1,0x8001
80011220:	8c633240 	lw	v1,12864(v1)
80011224:	0043102b 	sltu	v0,v0,v1
80011228:	14400006 	bnez	v0,80011244 <pgdir_walk+0x54>
8001122c:	24050133 	li	a1,307
80011230:	3c048001 	lui	a0,0x8001
80011234:	2484264c 	addiu	a0,a0,9804
80011238:	3c068001 	lui	a2,0x8001
8001123c:	0c0042b4 	jal	80010ad0 <_panic>
80011240:	24c62654 	addiu	a2,a2,9812
80011244:	14800033 	bnez	a0,80011314 <pgdir_walk+0x124>
80011248:	00001021 	move	v0,zero
8001124c:	10c00032 	beqz	a2,80011318 <pgdir_walk+0x128>
80011250:	8fbf0020 	lw	ra,32(sp)
80011254:	0c00444f 	jal	8001113c <page_alloc>
80011258:	27a40010 	addiu	a0,sp,16
8001125c:	1440002d 	bnez	v0,80011314 <pgdir_walk+0x124>
80011260:	2402fffc 	li	v0,-4
80011264:	3c108001 	lui	s0,0x8001
80011268:	8fa40010 	lw	a0,16(sp)
8001126c:	8e033254 	lw	v1,12884(s0)
80011270:	00831823 	subu	v1,a0,v1
80011274:	00031883 	sra	v1,v1,0x2
80011278:	00031080 	sll	v0,v1,0x2
8001127c:	00431021 	addu	v0,v0,v1
80011280:	00021900 	sll	v1,v0,0x4
80011284:	00431021 	addu	v0,v0,v1
80011288:	00021a00 	sll	v1,v0,0x8
8001128c:	00431021 	addu	v0,v0,v1
80011290:	00021c00 	sll	v1,v0,0x10
80011294:	00431021 	addu	v0,v0,v1
80011298:	00021023 	negu	v0,v0
8001129c:	00021300 	sll	v0,v0,0xc
800112a0:	34420600 	ori	v0,v0,0x600
800112a4:	0c004448 	jal	80011120 <page_initpp>
800112a8:	ae220000 	sw	v0,0(s1)
800112ac:	8e023254 	lw	v0,12884(s0)
800112b0:	8fa30010 	lw	v1,16(sp)
800112b4:	00621823 	subu	v1,v1,v0
800112b8:	00031883 	sra	v1,v1,0x2
800112bc:	00031080 	sll	v0,v1,0x2
800112c0:	00431021 	addu	v0,v0,v1
800112c4:	00021900 	sll	v1,v0,0x4
800112c8:	00431021 	addu	v0,v0,v1
800112cc:	00021a00 	sll	v1,v0,0x8
800112d0:	00431021 	addu	v0,v0,v1
800112d4:	00021c00 	sll	v1,v0,0x10
800112d8:	00431021 	addu	v0,v0,v1
800112dc:	00021023 	negu	v0,v0
800112e0:	00023b00 	sll	a3,v0,0xc
800112e4:	00071302 	srl	v0,a3,0xc
800112e8:	3c038001 	lui	v1,0x8001
800112ec:	8c633240 	lw	v1,12864(v1)
800112f0:	0043102b 	sltu	v0,v0,v1
800112f4:	14400007 	bnez	v0,80011314 <pgdir_walk+0x124>
800112f8:	00001021 	move	v0,zero
800112fc:	3c048001 	lui	a0,0x8001
80011300:	24842770 	addiu	a0,a0,10096
80011304:	24050030 	li	a1,48
80011308:	3c068001 	lui	a2,0x8001
8001130c:	0c0042b4 	jal	80010ad0 <_panic>
80011310:	24c62654 	addiu	a2,a2,9812
80011314:	8fbf0020 	lw	ra,32(sp)
80011318:	8fb1001c 	lw	s1,28(sp)
8001131c:	8fb00018 	lw	s0,24(sp)
80011320:	03e00008 	jr	ra
80011324:	27bd0028 	addiu	sp,sp,40

80011328 <tlb_invalidate>:
80011328:	27bdffe8 	addiu	sp,sp,-24
8001132c:	afbf0010 	sw	ra,16(sp)
80011330:	3c028001 	lui	v0,0x8001
80011334:	8c4331a4 	lw	v1,12708(v0)
80011338:	10600009 	beqz	v1,80011360 <tlb_invalidate+0x38>
8001133c:	2402f000 	li	v0,-4096
80011340:	00a21024 	and	v0,a1,v0
80011344:	8c6400a4 	lw	a0,164(v1)
80011348:	000422c2 	srl	a0,a0,0xb
8001134c:	00042180 	sll	a0,a0,0x6
80011350:	0c0048bc 	jal	800122f0 <tlb_out>
80011354:	00442025 	or	a0,v0,a0
80011358:	10000005 	b	80011370 <tlb_invalidate+0x48>
8001135c:	8fbf0010 	lw	ra,16(sp)
80011360:	2404f000 	li	a0,-4096
80011364:	0c0048bc 	jal	800122f0 <tlb_out>
80011368:	00a42024 	and	a0,a1,a0
8001136c:	8fbf0010 	lw	ra,16(sp)
80011370:	03e00008 	jr	ra
80011374:	27bd0018 	addiu	sp,sp,24

80011378 <page_insert>:
80011378:	27bdffd8 	addiu	sp,sp,-40
8001137c:	afbf0020 	sw	ra,32(sp)
80011380:	afb1001c 	sw	s1,28(sp)
80011384:	afb00018 	sw	s0,24(sp)
80011388:	00a08021 	move	s0,a1
8001138c:	00e08821 	move	s1,a3
80011390:	00c02821 	move	a1,a2
80011394:	24060001 	li	a2,1
80011398:	0c00447c 	jal	800111f0 <pgdir_walk>
8001139c:	27a70010 	addiu	a3,sp,16
800113a0:	14400030 	bnez	v0,80011464 <page_insert+0xec>
800113a4:	2402fffc 	li	v0,-4
800113a8:	8fa20010 	lw	v0,16(sp)
800113ac:	8c470000 	lw	a3,0(v0)
800113b0:	10e00012 	beqz	a3,800113fc <page_insert+0x84>
800113b4:	00072302 	srl	a0,a3,0xc
800113b8:	3c028001 	lui	v0,0x8001
800113bc:	8c423240 	lw	v0,12864(v0)
800113c0:	0082102b 	sltu	v0,a0,v0
800113c4:	14400007 	bnez	v0,800113e4 <page_insert+0x6c>
800113c8:	00041080 	sll	v0,a0,0x2
800113cc:	3c048001 	lui	a0,0x8001
800113d0:	24842770 	addiu	a0,a0,10096
800113d4:	24050029 	li	a1,41
800113d8:	3c068001 	lui	a2,0x8001
800113dc:	0c0042b4 	jal	80010ad0 <_panic>
800113e0:	24c62784 	addiu	a2,a2,10116
800113e4:	00042100 	sll	a0,a0,0x4
800113e8:	00822023 	subu	a0,a0,v0
800113ec:	3c028001 	lui	v0,0x8001
800113f0:	8c423254 	lw	v0,12884(v0)
800113f4:	0c004470 	jal	800111c0 <page_decref>
800113f8:	00822021 	addu	a0,a0,v0
800113fc:	3c028001 	lui	v0,0x8001
80011400:	8c433254 	lw	v1,12884(v0)
80011404:	02031823 	subu	v1,s0,v1
80011408:	00031883 	sra	v1,v1,0x2
8001140c:	00031080 	sll	v0,v1,0x2
80011410:	00431021 	addu	v0,v0,v1
80011414:	00021900 	sll	v1,v0,0x4
80011418:	00431021 	addu	v0,v0,v1
8001141c:	00021a00 	sll	v1,v0,0x8
80011420:	00431021 	addu	v0,v0,v1
80011424:	00021c00 	sll	v1,v0,0x10
80011428:	00431021 	addu	v0,v0,v1
8001142c:	00021023 	negu	v0,v0
80011430:	00021300 	sll	v0,v0,0xc
80011434:	00511025 	or	v0,v0,s1
80011438:	34420200 	ori	v0,v0,0x200
8001143c:	8fa30010 	lw	v1,16(sp)
80011440:	ac620000 	sw	v0,0(v1)
80011444:	96020008 	lhu	v0,8(s0)
80011448:	24420001 	addiu	v0,v0,1
8001144c:	a6020008 	sh	v0,8(s0)
80011450:	3c048001 	lui	a0,0x8001
80011454:	248427a8 	addiu	a0,a0,10152
80011458:	0c0042a5 	jal	80010a94 <printf>
8001145c:	02002821 	move	a1,s0
80011460:	00001021 	move	v0,zero
80011464:	8fbf0020 	lw	ra,32(sp)
80011468:	8fb1001c 	lw	s1,28(sp)
8001146c:	8fb00018 	lw	s0,24(sp)
80011470:	03e00008 	jr	ra
80011474:	27bd0028 	addiu	sp,sp,40

80011478 <page_lookup>:
80011478:	27bdffe0 	addiu	sp,sp,-32
8001147c:	afbf001c 	sw	ra,28(sp)
80011480:	afb00018 	sw	s0,24(sp)
80011484:	00c08021 	move	s0,a2
80011488:	00003021 	move	a2,zero
8001148c:	0c00447c 	jal	800111f0 <pgdir_walk>
80011490:	27a70010 	addiu	a3,sp,16
80011494:	8fa40010 	lw	a0,16(sp)
80011498:	10800019 	beqz	a0,80011500 <page_lookup+0x88>
8001149c:	00001021 	move	v0,zero
800114a0:	8c870000 	lw	a3,0(a0)
800114a4:	30e20200 	andi	v0,a3,0x200
800114a8:	10400014 	beqz	v0,800114fc <page_lookup+0x84>
800114ac:	00072b02 	srl	a1,a3,0xc
800114b0:	3c028001 	lui	v0,0x8001
800114b4:	8c423240 	lw	v0,12864(v0)
800114b8:	00a2102b 	sltu	v0,a1,v0
800114bc:	14400007 	bnez	v0,800114dc <page_lookup+0x64>
800114c0:	00051880 	sll	v1,a1,0x2
800114c4:	3c048001 	lui	a0,0x8001
800114c8:	24842770 	addiu	a0,a0,10096
800114cc:	24050029 	li	a1,41
800114d0:	3c068001 	lui	a2,0x8001
800114d4:	0c0042b4 	jal	80010ad0 <_panic>
800114d8:	24c62784 	addiu	a2,a2,10116
800114dc:	00051100 	sll	v0,a1,0x4
800114e0:	00431023 	subu	v0,v0,v1
800114e4:	3c038001 	lui	v1,0x8001
800114e8:	8c633254 	lw	v1,12884(v1)
800114ec:	12000004 	beqz	s0,80011500 <page_lookup+0x88>
800114f0:	00431021 	addu	v0,v0,v1
800114f4:	10000002 	b	80011500 <page_lookup+0x88>
800114f8:	ae040000 	sw	a0,0(s0)
800114fc:	00001021 	move	v0,zero
80011500:	8fbf001c 	lw	ra,28(sp)
80011504:	8fb00018 	lw	s0,24(sp)
80011508:	03e00008 	jr	ra
8001150c:	27bd0020 	addiu	sp,sp,32

80011510 <page_remove>:
80011510:	03e00008 	jr	ra
80011514:	00000000 	nop

80011518 <page_check>:
80011518:	27bdffd0 	addiu	sp,sp,-48
8001151c:	afbf0028 	sw	ra,40(sp)
80011520:	afb10024 	sw	s1,36(sp)
80011524:	afb00020 	sw	s0,32(sp)
80011528:	afa0001c 	sw	zero,28(sp)
8001152c:	afa00018 	sw	zero,24(sp)
80011530:	afa00014 	sw	zero,20(sp)
80011534:	0c00444f 	jal	8001113c <page_alloc>
80011538:	27a40014 	addiu	a0,sp,20
8001153c:	10400008 	beqz	v0,80011560 <page_check+0x48>
80011540:	3c048001 	lui	a0,0x8001
80011544:	2484264c 	addiu	a0,a0,9804
80011548:	240501ad 	li	a1,429
8001154c:	3c068001 	lui	a2,0x8001
80011550:	24c627c4 	addiu	a2,a2,10180
80011554:	3c078001 	lui	a3,0x8001
80011558:	0c0042b4 	jal	80010ad0 <_panic>
8001155c:	24e727dc 	addiu	a3,a3,10204
80011560:	0c00444f 	jal	8001113c <page_alloc>
80011564:	27a40018 	addiu	a0,sp,24
80011568:	10400008 	beqz	v0,8001158c <page_check+0x74>
8001156c:	3c048001 	lui	a0,0x8001
80011570:	2484264c 	addiu	a0,a0,9804
80011574:	240501ae 	li	a1,430
80011578:	3c068001 	lui	a2,0x8001
8001157c:	24c627c4 	addiu	a2,a2,10180
80011580:	3c078001 	lui	a3,0x8001
80011584:	0c0042b4 	jal	80010ad0 <_panic>
80011588:	24e727f4 	addiu	a3,a3,10228
8001158c:	0c00444f 	jal	8001113c <page_alloc>
80011590:	27a4001c 	addiu	a0,sp,28
80011594:	10400009 	beqz	v0,800115bc <page_check+0xa4>
80011598:	8fa40014 	lw	a0,20(sp)
8001159c:	3c048001 	lui	a0,0x8001
800115a0:	2484264c 	addiu	a0,a0,9804
800115a4:	240501af 	li	a1,431
800115a8:	3c068001 	lui	a2,0x8001
800115ac:	24c627c4 	addiu	a2,a2,10180
800115b0:	3c078001 	lui	a3,0x8001
800115b4:	0c0042b4 	jal	80010ad0 <_panic>
800115b8:	24e7280c 	addiu	a3,a3,10252
800115bc:	14800009 	bnez	a0,800115e4 <page_check+0xcc>
800115c0:	8fa30018 	lw	v1,24(sp)
800115c4:	3c048001 	lui	a0,0x8001
800115c8:	2484264c 	addiu	a0,a0,9804
800115cc:	240501b1 	li	a1,433
800115d0:	3c068001 	lui	a2,0x8001
800115d4:	24c627c4 	addiu	a2,a2,10180
800115d8:	3c078001 	lui	a3,0x8001
800115dc:	0c0042b4 	jal	80010ad0 <_panic>
800115e0:	24e72854 	addiu	a3,a3,10324
800115e4:	10600003 	beqz	v1,800115f4 <page_check+0xdc>
800115e8:	00000000 	nop
800115ec:	14830009 	bne	a0,v1,80011614 <page_check+0xfc>
800115f0:	8fa2001c 	lw	v0,28(sp)
800115f4:	3c048001 	lui	a0,0x8001
800115f8:	2484264c 	addiu	a0,a0,9804
800115fc:	240501b2 	li	a1,434
80011600:	3c068001 	lui	a2,0x8001
80011604:	24c627c4 	addiu	a2,a2,10180
80011608:	3c078001 	lui	a3,0x8001
8001160c:	0c0042b4 	jal	80010ad0 <_panic>
80011610:	24e72824 	addiu	a3,a3,10276
80011614:	10400005 	beqz	v0,8001162c <page_check+0x114>
80011618:	00000000 	nop
8001161c:	10620003 	beq	v1,v0,8001162c <page_check+0x114>
80011620:	00000000 	nop
80011624:	14820009 	bne	a0,v0,8001164c <page_check+0x134>
80011628:	3c028001 	lui	v0,0x8001
8001162c:	3c048001 	lui	a0,0x8001
80011630:	2484264c 	addiu	a0,a0,9804
80011634:	240501b3 	li	a1,435
80011638:	3c068001 	lui	a2,0x8001
8001163c:	24c627c4 	addiu	a2,a2,10180
80011640:	3c078001 	lui	a3,0x8001
80011644:	0c0042b4 	jal	80010ad0 <_panic>
80011648:	24e72838 	addiu	a3,a3,10296
8001164c:	8c5131b4 	lw	s1,12724(v0)
80011650:	ac4031b4 	sw	zero,12724(v0)
80011654:	0c00444f 	jal	8001113c <page_alloc>
80011658:	27a40010 	addiu	a0,sp,16
8001165c:	2403fffc 	li	v1,-4
80011660:	10430008 	beq	v0,v1,80011684 <page_check+0x16c>
80011664:	240501ba 	li	a1,442
80011668:	3c048001 	lui	a0,0x8001
8001166c:	2484264c 	addiu	a0,a0,9804
80011670:	3c068001 	lui	a2,0x8001
80011674:	24c627c4 	addiu	a2,a2,10180
80011678:	3c078001 	lui	a3,0x8001
8001167c:	0c0042b4 	jal	80010ad0 <_panic>
80011680:	24e72858 	addiu	a3,a3,10328
80011684:	3c048001 	lui	a0,0x8001
80011688:	0c0042a5 	jal	80010a94 <printf>
8001168c:	24842878 	addiu	a0,a0,10360
80011690:	3c028001 	lui	v0,0x8001
80011694:	8c443244 	lw	a0,12868(v0)
80011698:	8fa50018 	lw	a1,24(sp)
8001169c:	00003021 	move	a2,zero
800116a0:	0c0044de 	jal	80011378 <page_insert>
800116a4:	00003821 	move	a3,zero
800116a8:	04400008 	bltz	v0,800116cc <page_check+0x1b4>
800116ac:	3c048001 	lui	a0,0x8001
800116b0:	2484264c 	addiu	a0,a0,9804
800116b4:	240501bd 	li	a1,445
800116b8:	3c068001 	lui	a2,0x8001
800116bc:	24c627c4 	addiu	a2,a2,10180
800116c0:	3c078001 	lui	a3,0x8001
800116c4:	0c0042b4 	jal	80010ad0 <_panic>
800116c8:	24e7288c 	addiu	a3,a3,10380
800116cc:	0c004465 	jal	80011194 <page_free>
800116d0:	8fa40014 	lw	a0,20(sp)
800116d4:	3c028001 	lui	v0,0x8001
800116d8:	8c443244 	lw	a0,12868(v0)
800116dc:	8fa50018 	lw	a1,24(sp)
800116e0:	00003021 	move	a2,zero
800116e4:	0c0044de 	jal	80011378 <page_insert>
800116e8:	00003821 	move	a3,zero
800116ec:	10400009 	beqz	v0,80011714 <page_check+0x1fc>
800116f0:	3c028001 	lui	v0,0x8001
800116f4:	3c048001 	lui	a0,0x8001
800116f8:	2484264c 	addiu	a0,a0,9804
800116fc:	240501c1 	li	a1,449
80011700:	3c068001 	lui	a2,0x8001
80011704:	24c627c4 	addiu	a2,a2,10180
80011708:	3c078001 	lui	a3,0x8001
8001170c:	0c0042b4 	jal	80010ad0 <_panic>
80011710:	24e728b8 	addiu	a3,a3,10424
80011714:	8c443244 	lw	a0,12868(v0)
80011718:	8c850000 	lw	a1,0(a0)
8001171c:	2402f000 	li	v0,-4096
80011720:	00a23824 	and	a3,a1,v0
80011724:	3c028001 	lui	v0,0x8001
80011728:	8c463254 	lw	a2,12884(v0)
8001172c:	8fa30014 	lw	v1,20(sp)
80011730:	00661823 	subu	v1,v1,a2
80011734:	00031883 	sra	v1,v1,0x2
80011738:	00031080 	sll	v0,v1,0x2
8001173c:	00431021 	addu	v0,v0,v1
80011740:	00021900 	sll	v1,v0,0x4
80011744:	00431021 	addu	v0,v0,v1
80011748:	00021a00 	sll	v1,v0,0x8
8001174c:	00431021 	addu	v0,v0,v1
80011750:	00021c00 	sll	v1,v0,0x10
80011754:	00431021 	addu	v0,v0,v1
80011758:	00021023 	negu	v0,v0
8001175c:	00021300 	sll	v0,v0,0xc
80011760:	10e20009 	beq	a3,v0,80011788 <page_check+0x270>
80011764:	30a20200 	andi	v0,a1,0x200
80011768:	3c048001 	lui	a0,0x8001
8001176c:	2484264c 	addiu	a0,a0,9804
80011770:	240501c2 	li	a1,450
80011774:	3c068001 	lui	a2,0x8001
80011778:	24c627c4 	addiu	a2,a2,10180
8001177c:	3c078001 	lui	a3,0x8001
80011780:	0c0042b4 	jal	80010ad0 <_panic>
80011784:	24e728e4 	addiu	a3,a3,10468
80011788:	10400013 	beqz	v0,800117d8 <page_check+0x2c0>
8001178c:	00071302 	srl	v0,a3,0xc
80011790:	3c038001 	lui	v1,0x8001
80011794:	8c633240 	lw	v1,12864(v1)
80011798:	0043102b 	sltu	v0,v0,v1
8001179c:	14400007 	bnez	v0,800117bc <page_check+0x2a4>
800117a0:	3c028000 	lui	v0,0x8000
800117a4:	3c048001 	lui	a0,0x8001
800117a8:	24842770 	addiu	a0,a0,10096
800117ac:	2405003c 	li	a1,60
800117b0:	3c068001 	lui	a2,0x8001
800117b4:	0c0042b4 	jal	80010ad0 <_panic>
800117b8:	24c62654 	addiu	a2,a2,9812
800117bc:	00e21021 	addu	v0,a3,v0
800117c0:	8c470000 	lw	a3,0(v0)
800117c4:	30e20200 	andi	v0,a3,0x200
800117c8:	10400003 	beqz	v0,800117d8 <page_check+0x2c0>
800117cc:	2402f000 	li	v0,-4096
800117d0:	10000002 	b	800117dc <page_check+0x2c4>
800117d4:	00e23824 	and	a3,a3,v0
800117d8:	2407ffff 	li	a3,-1
800117dc:	8fa50018 	lw	a1,24(sp)
800117e0:	00a61823 	subu	v1,a1,a2
800117e4:	00031883 	sra	v1,v1,0x2
800117e8:	00031080 	sll	v0,v1,0x2
800117ec:	00431021 	addu	v0,v0,v1
800117f0:	00021900 	sll	v1,v0,0x4
800117f4:	00431021 	addu	v0,v0,v1
800117f8:	00021a00 	sll	v1,v0,0x8
800117fc:	00431021 	addu	v0,v0,v1
80011800:	00021c00 	sll	v1,v0,0x10
80011804:	00431021 	addu	v0,v0,v1
80011808:	00021023 	negu	v0,v0
8001180c:	00021300 	sll	v0,v0,0xc
80011810:	10e20009 	beq	a3,v0,80011838 <page_check+0x320>
80011814:	24020001 	li	v0,1
80011818:	3c048001 	lui	a0,0x8001
8001181c:	2484264c 	addiu	a0,a0,9804
80011820:	240501c3 	li	a1,451
80011824:	3c068001 	lui	a2,0x8001
80011828:	24c627c4 	addiu	a2,a2,10180
8001182c:	3c078001 	lui	a3,0x8001
80011830:	0c0042b4 	jal	80010ad0 <_panic>
80011834:	24e7290c 	addiu	a3,a3,10508
80011838:	94a30008 	lhu	v1,8(a1)
8001183c:	10620009 	beq	v1,v0,80011864 <page_check+0x34c>
80011840:	8fa5001c 	lw	a1,28(sp)
80011844:	3c048001 	lui	a0,0x8001
80011848:	2484264c 	addiu	a0,a0,9804
8001184c:	240501c4 	li	a1,452
80011850:	3c068001 	lui	a2,0x8001
80011854:	24c627c4 	addiu	a2,a2,10180
80011858:	3c078001 	lui	a3,0x8001
8001185c:	0c0042b4 	jal	80010ad0 <_panic>
80011860:	24e72934 	addiu	a3,a3,10548
80011864:	24061000 	li	a2,4096
80011868:	0c0044de 	jal	80011378 <page_insert>
8001186c:	00003821 	move	a3,zero
80011870:	10400009 	beqz	v0,80011898 <page_check+0x380>
80011874:	3c028001 	lui	v0,0x8001
80011878:	3c048001 	lui	a0,0x8001
8001187c:	2484264c 	addiu	a0,a0,9804
80011880:	240501c7 	li	a1,455
80011884:	3c068001 	lui	a2,0x8001
80011888:	24c627c4 	addiu	a2,a2,10180
8001188c:	3c078001 	lui	a3,0x8001
80011890:	0c0042b4 	jal	80010ad0 <_panic>
80011894:	24e72948 	addiu	a3,a3,10568
80011898:	8c423244 	lw	v0,12868(v0)
8001189c:	8c470000 	lw	a3,0(v0)
800118a0:	30e20200 	andi	v0,a3,0x200
800118a4:	10400015 	beqz	v0,800118fc <page_check+0x3e4>
800118a8:	2402f000 	li	v0,-4096
800118ac:	00e23824 	and	a3,a3,v0
800118b0:	00071302 	srl	v0,a3,0xc
800118b4:	3c038001 	lui	v1,0x8001
800118b8:	8c633240 	lw	v1,12864(v1)
800118bc:	0043102b 	sltu	v0,v0,v1
800118c0:	14400007 	bnez	v0,800118e0 <page_check+0x3c8>
800118c4:	3c028000 	lui	v0,0x8000
800118c8:	3c048001 	lui	a0,0x8001
800118cc:	24842770 	addiu	a0,a0,10096
800118d0:	2405003c 	li	a1,60
800118d4:	3c068001 	lui	a2,0x8001
800118d8:	0c0042b4 	jal	80010ad0 <_panic>
800118dc:	24c62654 	addiu	a2,a2,9812
800118e0:	00e21021 	addu	v0,a3,v0
800118e4:	8c470004 	lw	a3,4(v0)
800118e8:	30e20200 	andi	v0,a3,0x200
800118ec:	10400003 	beqz	v0,800118fc <page_check+0x3e4>
800118f0:	2402f000 	li	v0,-4096
800118f4:	10000002 	b	80011900 <page_check+0x3e8>
800118f8:	00e23824 	and	a3,a3,v0
800118fc:	2407ffff 	li	a3,-1
80011900:	8fa4001c 	lw	a0,28(sp)
80011904:	3c028001 	lui	v0,0x8001
80011908:	8c433254 	lw	v1,12884(v0)
8001190c:	00831823 	subu	v1,a0,v1
80011910:	00031883 	sra	v1,v1,0x2
80011914:	00031080 	sll	v0,v1,0x2
80011918:	00431021 	addu	v0,v0,v1
8001191c:	00021900 	sll	v1,v0,0x4
80011920:	00431021 	addu	v0,v0,v1
80011924:	00021a00 	sll	v1,v0,0x8
80011928:	00431021 	addu	v0,v0,v1
8001192c:	00021c00 	sll	v1,v0,0x10
80011930:	00431021 	addu	v0,v0,v1
80011934:	00021023 	negu	v0,v0
80011938:	00021300 	sll	v0,v0,0xc
8001193c:	10e20009 	beq	a3,v0,80011964 <page_check+0x44c>
80011940:	24020001 	li	v0,1
80011944:	3c048001 	lui	a0,0x8001
80011948:	2484264c 	addiu	a0,a0,9804
8001194c:	240501c8 	li	a1,456
80011950:	3c068001 	lui	a2,0x8001
80011954:	24c627c4 	addiu	a2,a2,10180
80011958:	3c078001 	lui	a3,0x8001
8001195c:	0c0042b4 	jal	80010ad0 <_panic>
80011960:	24e72974 	addiu	a3,a3,10612
80011964:	94830008 	lhu	v1,8(a0)
80011968:	10620008 	beq	v1,v0,8001198c <page_check+0x474>
8001196c:	3c048001 	lui	a0,0x8001
80011970:	2484264c 	addiu	a0,a0,9804
80011974:	240501c9 	li	a1,457
80011978:	3c068001 	lui	a2,0x8001
8001197c:	24c627c4 	addiu	a2,a2,10180
80011980:	3c078001 	lui	a3,0x8001
80011984:	0c0042b4 	jal	80010ad0 <_panic>
80011988:	24e729a0 	addiu	a3,a3,10656
8001198c:	0c00444f 	jal	8001113c <page_alloc>
80011990:	27a40010 	addiu	a0,sp,16
80011994:	2403fffc 	li	v1,-4
80011998:	10430009 	beq	v0,v1,800119c0 <page_check+0x4a8>
8001199c:	3c028001 	lui	v0,0x8001
800119a0:	3c048001 	lui	a0,0x8001
800119a4:	2484264c 	addiu	a0,a0,9804
800119a8:	240501cb 	li	a1,459
800119ac:	3c068001 	lui	a2,0x8001
800119b0:	24c627c4 	addiu	a2,a2,10180
800119b4:	3c078001 	lui	a3,0x8001
800119b8:	0c0042b4 	jal	80010ad0 <_panic>
800119bc:	24e72858 	addiu	a3,a3,10328
800119c0:	8c443244 	lw	a0,12868(v0)
800119c4:	8fa5001c 	lw	a1,28(sp)
800119c8:	24061000 	li	a2,4096
800119cc:	0c0044de 	jal	80011378 <page_insert>
800119d0:	00003821 	move	a3,zero
800119d4:	10400009 	beqz	v0,800119fc <page_check+0x4e4>
800119d8:	3c028001 	lui	v0,0x8001
800119dc:	3c048001 	lui	a0,0x8001
800119e0:	2484264c 	addiu	a0,a0,9804
800119e4:	240501ce 	li	a1,462
800119e8:	3c068001 	lui	a2,0x8001
800119ec:	24c627c4 	addiu	a2,a2,10180
800119f0:	3c078001 	lui	a3,0x8001
800119f4:	0c0042b4 	jal	80010ad0 <_panic>
800119f8:	24e72948 	addiu	a3,a3,10568
800119fc:	8c423244 	lw	v0,12868(v0)
80011a00:	8c470000 	lw	a3,0(v0)
80011a04:	30e20200 	andi	v0,a3,0x200
80011a08:	10400015 	beqz	v0,80011a60 <page_check+0x548>
80011a0c:	2402f000 	li	v0,-4096
80011a10:	00e23824 	and	a3,a3,v0
80011a14:	00071302 	srl	v0,a3,0xc
80011a18:	3c038001 	lui	v1,0x8001
80011a1c:	8c633240 	lw	v1,12864(v1)
80011a20:	0043102b 	sltu	v0,v0,v1
80011a24:	14400007 	bnez	v0,80011a44 <page_check+0x52c>
80011a28:	3c028000 	lui	v0,0x8000
80011a2c:	3c048001 	lui	a0,0x8001
80011a30:	24842770 	addiu	a0,a0,10096
80011a34:	2405003c 	li	a1,60
80011a38:	3c068001 	lui	a2,0x8001
80011a3c:	0c0042b4 	jal	80010ad0 <_panic>
80011a40:	24c62654 	addiu	a2,a2,9812
80011a44:	00e21021 	addu	v0,a3,v0
80011a48:	8c470004 	lw	a3,4(v0)
80011a4c:	30e20200 	andi	v0,a3,0x200
80011a50:	10400003 	beqz	v0,80011a60 <page_check+0x548>
80011a54:	2402f000 	li	v0,-4096
80011a58:	10000002 	b	80011a64 <page_check+0x54c>
80011a5c:	00e23824 	and	a3,a3,v0
80011a60:	2407ffff 	li	a3,-1
80011a64:	8fa4001c 	lw	a0,28(sp)
80011a68:	3c028001 	lui	v0,0x8001
80011a6c:	8c433254 	lw	v1,12884(v0)
80011a70:	00831823 	subu	v1,a0,v1
80011a74:	00031883 	sra	v1,v1,0x2
80011a78:	00031080 	sll	v0,v1,0x2
80011a7c:	00431021 	addu	v0,v0,v1
80011a80:	00021900 	sll	v1,v0,0x4
80011a84:	00431021 	addu	v0,v0,v1
80011a88:	00021a00 	sll	v1,v0,0x8
80011a8c:	00431021 	addu	v0,v0,v1
80011a90:	00021c00 	sll	v1,v0,0x10
80011a94:	00431021 	addu	v0,v0,v1
80011a98:	00021023 	negu	v0,v0
80011a9c:	00021300 	sll	v0,v0,0xc
80011aa0:	10e20009 	beq	a3,v0,80011ac8 <page_check+0x5b0>
80011aa4:	24020001 	li	v0,1
80011aa8:	3c048001 	lui	a0,0x8001
80011aac:	2484264c 	addiu	a0,a0,9804
80011ab0:	240501cf 	li	a1,463
80011ab4:	3c068001 	lui	a2,0x8001
80011ab8:	24c627c4 	addiu	a2,a2,10180
80011abc:	3c078001 	lui	a3,0x8001
80011ac0:	0c0042b4 	jal	80010ad0 <_panic>
80011ac4:	24e72974 	addiu	a3,a3,10612
80011ac8:	94830008 	lhu	v1,8(a0)
80011acc:	10620008 	beq	v1,v0,80011af0 <page_check+0x5d8>
80011ad0:	3c048001 	lui	a0,0x8001
80011ad4:	2484264c 	addiu	a0,a0,9804
80011ad8:	240501d0 	li	a1,464
80011adc:	3c068001 	lui	a2,0x8001
80011ae0:	24c627c4 	addiu	a2,a2,10180
80011ae4:	3c078001 	lui	a3,0x8001
80011ae8:	0c0042b4 	jal	80010ad0 <_panic>
80011aec:	24e729a0 	addiu	a3,a3,10656
80011af0:	0c00444f 	jal	8001113c <page_alloc>
80011af4:	27a40010 	addiu	a0,sp,16
80011af8:	2403fffc 	li	v1,-4
80011afc:	10430009 	beq	v0,v1,80011b24 <page_check+0x60c>
80011b00:	3c028001 	lui	v0,0x8001
80011b04:	3c048001 	lui	a0,0x8001
80011b08:	2484264c 	addiu	a0,a0,9804
80011b0c:	240501d4 	li	a1,468
80011b10:	3c068001 	lui	a2,0x8001
80011b14:	24c627c4 	addiu	a2,a2,10180
80011b18:	3c078001 	lui	a3,0x8001
80011b1c:	0c0042b4 	jal	80010ad0 <_panic>
80011b20:	24e72858 	addiu	a3,a3,10328
80011b24:	8c443244 	lw	a0,12868(v0)
80011b28:	8fa50014 	lw	a1,20(sp)
80011b2c:	3c060040 	lui	a2,0x40
80011b30:	0c0044de 	jal	80011378 <page_insert>
80011b34:	00003821 	move	a3,zero
80011b38:	04400009 	bltz	v0,80011b60 <page_check+0x648>
80011b3c:	3c028001 	lui	v0,0x8001
80011b40:	3c048001 	lui	a0,0x8001
80011b44:	2484264c 	addiu	a0,a0,9804
80011b48:	240501d7 	li	a1,471
80011b4c:	3c068001 	lui	a2,0x8001
80011b50:	24c627c4 	addiu	a2,a2,10180
80011b54:	3c078001 	lui	a3,0x8001
80011b58:	0c0042b4 	jal	80010ad0 <_panic>
80011b5c:	24e729b4 	addiu	a3,a3,10676
80011b60:	8c443244 	lw	a0,12868(v0)
80011b64:	8fa50018 	lw	a1,24(sp)
80011b68:	24061000 	li	a2,4096
80011b6c:	0c0044de 	jal	80011378 <page_insert>
80011b70:	00003821 	move	a3,zero
80011b74:	10400009 	beqz	v0,80011b9c <page_check+0x684>
80011b78:	3c028001 	lui	v0,0x8001
80011b7c:	3c048001 	lui	a0,0x8001
80011b80:	2484264c 	addiu	a0,a0,9804
80011b84:	240501da 	li	a1,474
80011b88:	3c068001 	lui	a2,0x8001
80011b8c:	24c627c4 	addiu	a2,a2,10180
80011b90:	3c078001 	lui	a3,0x8001
80011b94:	0c0042b4 	jal	80010ad0 <_panic>
80011b98:	24e729e0 	addiu	a3,a3,10720
80011b9c:	8c423244 	lw	v0,12868(v0)
80011ba0:	8c450000 	lw	a1,0(v0)
80011ba4:	00051242 	srl	v0,a1,0x9
80011ba8:	30460001 	andi	a2,v0,0x1
80011bac:	10c00017 	beqz	a2,80011c0c <page_check+0x6f4>
80011bb0:	2404ffff 	li	a0,-1
80011bb4:	2402f000 	li	v0,-4096
80011bb8:	00a23824 	and	a3,a1,v0
80011bbc:	00071302 	srl	v0,a3,0xc
80011bc0:	3c038001 	lui	v1,0x8001
80011bc4:	8c633240 	lw	v1,12864(v1)
80011bc8:	0043102b 	sltu	v0,v0,v1
80011bcc:	14400007 	bnez	v0,80011bec <page_check+0x6d4>
80011bd0:	3c028000 	lui	v0,0x8000
80011bd4:	3c048001 	lui	a0,0x8001
80011bd8:	24842770 	addiu	a0,a0,10096
80011bdc:	2405003c 	li	a1,60
80011be0:	3c068001 	lui	a2,0x8001
80011be4:	0c0042b4 	jal	80010ad0 <_panic>
80011be8:	24c62654 	addiu	a2,a2,9812
80011bec:	00e21021 	addu	v0,a3,v0
80011bf0:	8c470000 	lw	a3,0(v0)
80011bf4:	30e20200 	andi	v0,a3,0x200
80011bf8:	10400003 	beqz	v0,80011c08 <page_check+0x6f0>
80011bfc:	2402f000 	li	v0,-4096
80011c00:	10000002 	b	80011c0c <page_check+0x6f4>
80011c04:	00e22024 	and	a0,a3,v0
80011c08:	2404ffff 	li	a0,-1
80011c0c:	8fa80018 	lw	t0,24(sp)
80011c10:	3c028001 	lui	v0,0x8001
80011c14:	8c433254 	lw	v1,12884(v0)
80011c18:	01031823 	subu	v1,t0,v1
80011c1c:	00031883 	sra	v1,v1,0x2
80011c20:	00031080 	sll	v0,v1,0x2
80011c24:	00431021 	addu	v0,v0,v1
80011c28:	00021900 	sll	v1,v0,0x4
80011c2c:	00431021 	addu	v0,v0,v1
80011c30:	00021a00 	sll	v1,v0,0x8
80011c34:	00431021 	addu	v0,v0,v1
80011c38:	00021c00 	sll	v1,v0,0x10
80011c3c:	00431021 	addu	v0,v0,v1
80011c40:	00021023 	negu	v0,v0
80011c44:	00021300 	sll	v0,v0,0xc
80011c48:	10820008 	beq	a0,v0,80011c6c <page_check+0x754>
80011c4c:	3c078001 	lui	a3,0x8001
80011c50:	3c048001 	lui	a0,0x8001
80011c54:	2484264c 	addiu	a0,a0,9804
80011c58:	240501dd 	li	a1,477
80011c5c:	3c068001 	lui	a2,0x8001
80011c60:	24c627c4 	addiu	a2,a2,10180
80011c64:	0c0042b4 	jal	80010ad0 <_panic>
80011c68:	24e7290c 	addiu	a3,a3,10508
80011c6c:	10c00017 	beqz	a2,80011ccc <page_check+0x7b4>
80011c70:	2402ffff 	li	v0,-1
80011c74:	2402f000 	li	v0,-4096
80011c78:	00a23824 	and	a3,a1,v0
80011c7c:	00071302 	srl	v0,a3,0xc
80011c80:	3c038001 	lui	v1,0x8001
80011c84:	8c633240 	lw	v1,12864(v1)
80011c88:	0043102b 	sltu	v0,v0,v1
80011c8c:	14400007 	bnez	v0,80011cac <page_check+0x794>
80011c90:	3c028000 	lui	v0,0x8000
80011c94:	3c048001 	lui	a0,0x8001
80011c98:	24842770 	addiu	a0,a0,10096
80011c9c:	2405003c 	li	a1,60
80011ca0:	3c068001 	lui	a2,0x8001
80011ca4:	0c0042b4 	jal	80010ad0 <_panic>
80011ca8:	24c62654 	addiu	a2,a2,9812
80011cac:	00e21021 	addu	v0,a3,v0
80011cb0:	8c470004 	lw	a3,4(v0)
80011cb4:	30e20200 	andi	v0,a3,0x200
80011cb8:	10400003 	beqz	v0,80011cc8 <page_check+0x7b0>
80011cbc:	2402f000 	li	v0,-4096
80011cc0:	10000002 	b	80011ccc <page_check+0x7b4>
80011cc4:	00e21024 	and	v0,a3,v0
80011cc8:	2402ffff 	li	v0,-1
80011ccc:	10820009 	beq	a0,v0,80011cf4 <page_check+0x7dc>
80011cd0:	24020002 	li	v0,2
80011cd4:	3c048001 	lui	a0,0x8001
80011cd8:	2484264c 	addiu	a0,a0,9804
80011cdc:	240501de 	li	a1,478
80011ce0:	3c068001 	lui	a2,0x8001
80011ce4:	24c627c4 	addiu	a2,a2,10180
80011ce8:	3c078001 	lui	a3,0x8001
80011cec:	0c0042b4 	jal	80010ad0 <_panic>
80011cf0:	24e72a0c 	addiu	a3,a3,10764
80011cf4:	95030008 	lhu	v1,8(t0)
80011cf8:	10620009 	beq	v1,v0,80011d20 <page_check+0x808>
80011cfc:	8fa2001c 	lw	v0,28(sp)
80011d00:	3c048001 	lui	a0,0x8001
80011d04:	2484264c 	addiu	a0,a0,9804
80011d08:	240501e0 	li	a1,480
80011d0c:	3c068001 	lui	a2,0x8001
80011d10:	24c627c4 	addiu	a2,a2,10180
80011d14:	3c078001 	lui	a3,0x8001
80011d18:	0c0042b4 	jal	80010ad0 <_panic>
80011d1c:	24e72a38 	addiu	a3,a3,10808
80011d20:	94420008 	lhu	v0,8(v0)
80011d24:	10400008 	beqz	v0,80011d48 <page_check+0x830>
80011d28:	240501e1 	li	a1,481
80011d2c:	3c048001 	lui	a0,0x8001
80011d30:	2484264c 	addiu	a0,a0,9804
80011d34:	3c068001 	lui	a2,0x8001
80011d38:	24c627c4 	addiu	a2,a2,10180
80011d3c:	3c078001 	lui	a3,0x8001
80011d40:	0c0042b4 	jal	80010ad0 <_panic>
80011d44:	24e72a4c 	addiu	a3,a3,10828
80011d48:	3c048001 	lui	a0,0x8001
80011d4c:	0c0042a5 	jal	80010a94 <printf>
80011d50:	24842a60 	addiu	a0,a0,10848
80011d54:	0c00444f 	jal	8001113c <page_alloc>
80011d58:	27a40010 	addiu	a0,sp,16
80011d5c:	14400004 	bnez	v0,80011d70 <page_check+0x858>
80011d60:	8fa30010 	lw	v1,16(sp)
80011d64:	8fa2001c 	lw	v0,28(sp)
80011d68:	10620009 	beq	v1,v0,80011d90 <page_check+0x878>
80011d6c:	3c108001 	lui	s0,0x8001
80011d70:	3c048001 	lui	a0,0x8001
80011d74:	2484264c 	addiu	a0,a0,9804
80011d78:	240501e5 	li	a1,485
80011d7c:	3c068001 	lui	a2,0x8001
80011d80:	24c627c4 	addiu	a2,a2,10180
80011d84:	3c078001 	lui	a3,0x8001
80011d88:	0c0042b4 	jal	80010ad0 <_panic>
80011d8c:	24e72a70 	addiu	a3,a3,10864
80011d90:	8e043244 	lw	a0,12868(s0)
80011d94:	0c004544 	jal	80011510 <page_remove>
80011d98:	00002821 	move	a1,zero
80011d9c:	8e043244 	lw	a0,12868(s0)
80011da0:	8c870000 	lw	a3,0(a0)
80011da4:	30e20200 	andi	v0,a3,0x200
80011da8:	10400034 	beqz	v0,80011e7c <page_check+0x964>
80011dac:	2402f000 	li	v0,-4096
80011db0:	00e24024 	and	t0,a3,v0
80011db4:	00081302 	srl	v0,t0,0xc
80011db8:	3c038001 	lui	v1,0x8001
80011dbc:	8c633240 	lw	v1,12864(v1)
80011dc0:	0043102b 	sltu	v0,v0,v1
80011dc4:	14400008 	bnez	v0,80011de8 <page_check+0x8d0>
80011dc8:	3c028000 	lui	v0,0x8000
80011dcc:	3c048001 	lui	a0,0x8001
80011dd0:	24842770 	addiu	a0,a0,10096
80011dd4:	2405003c 	li	a1,60
80011dd8:	3c068001 	lui	a2,0x8001
80011ddc:	24c62654 	addiu	a2,a2,9812
80011de0:	0c0042b4 	jal	80010ad0 <_panic>
80011de4:	01003821 	move	a3,t0
80011de8:	01021021 	addu	v0,t0,v0
80011dec:	8c430000 	lw	v1,0(v0)
80011df0:	30620200 	andi	v0,v1,0x200
80011df4:	1040000d 	beqz	v0,80011e2c <page_check+0x914>
80011df8:	2402f000 	li	v0,-4096
80011dfc:	00621024 	and	v0,v1,v0
80011e00:	2403ffff 	li	v1,-1
80011e04:	10430009 	beq	v0,v1,80011e2c <page_check+0x914>
80011e08:	2402f000 	li	v0,-4096
80011e0c:	3c048001 	lui	a0,0x8001
80011e10:	2484264c 	addiu	a0,a0,9804
80011e14:	240501e9 	li	a1,489
80011e18:	3c068001 	lui	a2,0x8001
80011e1c:	24c627c4 	addiu	a2,a2,10180
80011e20:	3c078001 	lui	a3,0x8001
80011e24:	0c0042b4 	jal	80010ad0 <_panic>
80011e28:	24e72a94 	addiu	a3,a3,10900
80011e2c:	00e23824 	and	a3,a3,v0
80011e30:	00071302 	srl	v0,a3,0xc
80011e34:	3c038001 	lui	v1,0x8001
80011e38:	8c633240 	lw	v1,12864(v1)
80011e3c:	0043102b 	sltu	v0,v0,v1
80011e40:	14400007 	bnez	v0,80011e60 <page_check+0x948>
80011e44:	3c028000 	lui	v0,0x8000
80011e48:	3c048001 	lui	a0,0x8001
80011e4c:	24842770 	addiu	a0,a0,10096
80011e50:	2405003c 	li	a1,60
80011e54:	3c068001 	lui	a2,0x8001
80011e58:	0c0042b4 	jal	80010ad0 <_panic>
80011e5c:	24c62654 	addiu	a2,a2,9812
80011e60:	00e21021 	addu	v0,a3,v0
80011e64:	8c470004 	lw	a3,4(v0)
80011e68:	30e20200 	andi	v0,a3,0x200
80011e6c:	10400003 	beqz	v0,80011e7c <page_check+0x964>
80011e70:	2402f000 	li	v0,-4096
80011e74:	10000002 	b	80011e80 <page_check+0x968>
80011e78:	00e23824 	and	a3,a3,v0
80011e7c:	2407ffff 	li	a3,-1
80011e80:	8fa50018 	lw	a1,24(sp)
80011e84:	3c028001 	lui	v0,0x8001
80011e88:	8c433254 	lw	v1,12884(v0)
80011e8c:	00a31823 	subu	v1,a1,v1
80011e90:	00031883 	sra	v1,v1,0x2
80011e94:	00031080 	sll	v0,v1,0x2
80011e98:	00431021 	addu	v0,v0,v1
80011e9c:	00021900 	sll	v1,v0,0x4
80011ea0:	00431021 	addu	v0,v0,v1
80011ea4:	00021a00 	sll	v1,v0,0x8
80011ea8:	00431021 	addu	v0,v0,v1
80011eac:	00021c00 	sll	v1,v0,0x10
80011eb0:	00431021 	addu	v0,v0,v1
80011eb4:	00021023 	negu	v0,v0
80011eb8:	00021300 	sll	v0,v0,0xc
80011ebc:	10e20009 	beq	a3,v0,80011ee4 <page_check+0x9cc>
80011ec0:	24020001 	li	v0,1
80011ec4:	3c048001 	lui	a0,0x8001
80011ec8:	2484264c 	addiu	a0,a0,9804
80011ecc:	240501ea 	li	a1,490
80011ed0:	3c068001 	lui	a2,0x8001
80011ed4:	24c627c4 	addiu	a2,a2,10180
80011ed8:	3c078001 	lui	a3,0x8001
80011edc:	0c0042b4 	jal	80010ad0 <_panic>
80011ee0:	24e72a0c 	addiu	a3,a3,10764
80011ee4:	94a30008 	lhu	v1,8(a1)
80011ee8:	10620009 	beq	v1,v0,80011f10 <page_check+0x9f8>
80011eec:	8fa2001c 	lw	v0,28(sp)
80011ef0:	3c048001 	lui	a0,0x8001
80011ef4:	2484264c 	addiu	a0,a0,9804
80011ef8:	240501eb 	li	a1,491
80011efc:	3c068001 	lui	a2,0x8001
80011f00:	24c627c4 	addiu	a2,a2,10180
80011f04:	3c078001 	lui	a3,0x8001
80011f08:	0c0042b4 	jal	80010ad0 <_panic>
80011f0c:	24e72934 	addiu	a3,a3,10548
80011f10:	94420008 	lhu	v0,8(v0)
80011f14:	10400008 	beqz	v0,80011f38 <page_check+0xa20>
80011f18:	240501ec 	li	a1,492
80011f1c:	3c048001 	lui	a0,0x8001
80011f20:	2484264c 	addiu	a0,a0,9804
80011f24:	3c068001 	lui	a2,0x8001
80011f28:	24c627c4 	addiu	a2,a2,10180
80011f2c:	3c078001 	lui	a3,0x8001
80011f30:	0c0042b4 	jal	80010ad0 <_panic>
80011f34:	24e72a4c 	addiu	a3,a3,10828
80011f38:	0c004544 	jal	80011510 <page_remove>
80011f3c:	24051000 	li	a1,4096
80011f40:	3c028001 	lui	v0,0x8001
80011f44:	8c423244 	lw	v0,12868(v0)
80011f48:	8c470000 	lw	a3,0(v0)
80011f4c:	30e20200 	andi	v0,a3,0x200
80011f50:	10400040 	beqz	v0,80012054 <page_check+0xb3c>
80011f54:	8fa20018 	lw	v0,24(sp)
80011f58:	2402f000 	li	v0,-4096
80011f5c:	00e24024 	and	t0,a3,v0
80011f60:	00081302 	srl	v0,t0,0xc
80011f64:	3c038001 	lui	v1,0x8001
80011f68:	8c633240 	lw	v1,12864(v1)
80011f6c:	0043102b 	sltu	v0,v0,v1
80011f70:	14400008 	bnez	v0,80011f94 <page_check+0xa7c>
80011f74:	3c028000 	lui	v0,0x8000
80011f78:	3c048001 	lui	a0,0x8001
80011f7c:	24842770 	addiu	a0,a0,10096
80011f80:	2405003c 	li	a1,60
80011f84:	3c068001 	lui	a2,0x8001
80011f88:	24c62654 	addiu	a2,a2,9812
80011f8c:	0c0042b4 	jal	80010ad0 <_panic>
80011f90:	01003821 	move	a3,t0
80011f94:	01021021 	addu	v0,t0,v0
80011f98:	8c430000 	lw	v1,0(v0)
80011f9c:	30620200 	andi	v0,v1,0x200
80011fa0:	1040000d 	beqz	v0,80011fd8 <page_check+0xac0>
80011fa4:	2402f000 	li	v0,-4096
80011fa8:	00621024 	and	v0,v1,v0
80011fac:	2403ffff 	li	v1,-1
80011fb0:	10430009 	beq	v0,v1,80011fd8 <page_check+0xac0>
80011fb4:	2402f000 	li	v0,-4096
80011fb8:	3c048001 	lui	a0,0x8001
80011fbc:	2484264c 	addiu	a0,a0,9804
80011fc0:	240501f0 	li	a1,496
80011fc4:	3c068001 	lui	a2,0x8001
80011fc8:	24c627c4 	addiu	a2,a2,10180
80011fcc:	3c078001 	lui	a3,0x8001
80011fd0:	0c0042b4 	jal	80010ad0 <_panic>
80011fd4:	24e72a94 	addiu	a3,a3,10900
80011fd8:	00e23824 	and	a3,a3,v0
80011fdc:	00071302 	srl	v0,a3,0xc
80011fe0:	3c038001 	lui	v1,0x8001
80011fe4:	8c633240 	lw	v1,12864(v1)
80011fe8:	0043102b 	sltu	v0,v0,v1
80011fec:	14400007 	bnez	v0,8001200c <page_check+0xaf4>
80011ff0:	3c028000 	lui	v0,0x8000
80011ff4:	3c048001 	lui	a0,0x8001
80011ff8:	24842770 	addiu	a0,a0,10096
80011ffc:	2405003c 	li	a1,60
80012000:	3c068001 	lui	a2,0x8001
80012004:	0c0042b4 	jal	80010ad0 <_panic>
80012008:	24c62654 	addiu	a2,a2,9812
8001200c:	00e21021 	addu	v0,a3,v0
80012010:	8c470004 	lw	a3,4(v0)
80012014:	30e20200 	andi	v0,a3,0x200
80012018:	1040000e 	beqz	v0,80012054 <page_check+0xb3c>
8001201c:	8fa20018 	lw	v0,24(sp)
80012020:	2402f000 	li	v0,-4096
80012024:	00e21024 	and	v0,a3,v0
80012028:	2403ffff 	li	v1,-1
8001202c:	10430009 	beq	v0,v1,80012054 <page_check+0xb3c>
80012030:	8fa20018 	lw	v0,24(sp)
80012034:	3c048001 	lui	a0,0x8001
80012038:	2484264c 	addiu	a0,a0,9804
8001203c:	240501f1 	li	a1,497
80012040:	3c068001 	lui	a2,0x8001
80012044:	24c627c4 	addiu	a2,a2,10180
80012048:	3c078001 	lui	a3,0x8001
8001204c:	0c0042b4 	jal	80010ad0 <_panic>
80012050:	24e72ab4 	addiu	a3,a3,10932
80012054:	94420008 	lhu	v0,8(v0)
80012058:	10400009 	beqz	v0,80012080 <page_check+0xb68>
8001205c:	8fa2001c 	lw	v0,28(sp)
80012060:	3c048001 	lui	a0,0x8001
80012064:	2484264c 	addiu	a0,a0,9804
80012068:	240501f2 	li	a1,498
8001206c:	3c068001 	lui	a2,0x8001
80012070:	24c627c4 	addiu	a2,a2,10180
80012074:	3c078001 	lui	a3,0x8001
80012078:	0c0042b4 	jal	80010ad0 <_panic>
8001207c:	24e72ad4 	addiu	a3,a3,10964
80012080:	94420008 	lhu	v0,8(v0)
80012084:	10400008 	beqz	v0,800120a8 <page_check+0xb90>
80012088:	3c048001 	lui	a0,0x8001
8001208c:	2484264c 	addiu	a0,a0,9804
80012090:	240501f3 	li	a1,499
80012094:	3c068001 	lui	a2,0x8001
80012098:	24c627c4 	addiu	a2,a2,10180
8001209c:	3c078001 	lui	a3,0x8001
800120a0:	0c0042b4 	jal	80010ad0 <_panic>
800120a4:	24e72a4c 	addiu	a3,a3,10828
800120a8:	0c00444f 	jal	8001113c <page_alloc>
800120ac:	27a40010 	addiu	a0,sp,16
800120b0:	14400004 	bnez	v0,800120c4 <page_check+0xbac>
800120b4:	8fa30010 	lw	v1,16(sp)
800120b8:	8fa20018 	lw	v0,24(sp)
800120bc:	10620009 	beq	v1,v0,800120e4 <page_check+0xbcc>
800120c0:	00000000 	nop
800120c4:	3c048001 	lui	a0,0x8001
800120c8:	2484264c 	addiu	a0,a0,9804
800120cc:	240501f6 	li	a1,502
800120d0:	3c068001 	lui	a2,0x8001
800120d4:	24c627c4 	addiu	a2,a2,10180
800120d8:	3c078001 	lui	a3,0x8001
800120dc:	0c0042b4 	jal	80010ad0 <_panic>
800120e0:	24e72ae8 	addiu	a3,a3,10984
800120e4:	0c00444f 	jal	8001113c <page_alloc>
800120e8:	27a40010 	addiu	a0,sp,16
800120ec:	2403fffc 	li	v1,-4
800120f0:	10430009 	beq	v0,v1,80012118 <page_check+0xc00>
800120f4:	3c028001 	lui	v0,0x8001
800120f8:	3c048001 	lui	a0,0x8001
800120fc:	2484264c 	addiu	a0,a0,9804
80012100:	240501f9 	li	a1,505
80012104:	3c068001 	lui	a2,0x8001
80012108:	24c627c4 	addiu	a2,a2,10180
8001210c:	3c078001 	lui	a3,0x8001
80012110:	0c0042b4 	jal	80010ad0 <_panic>
80012114:	24e72858 	addiu	a3,a3,10328
80012118:	8c453244 	lw	a1,12868(v0)
8001211c:	8ca40000 	lw	a0,0(a1)
80012120:	2402f000 	li	v0,-4096
80012124:	00822024 	and	a0,a0,v0
80012128:	3c028001 	lui	v0,0x8001
8001212c:	8c423254 	lw	v0,12884(v0)
80012130:	8fa30014 	lw	v1,20(sp)
80012134:	00621823 	subu	v1,v1,v0
80012138:	00031883 	sra	v1,v1,0x2
8001213c:	00031080 	sll	v0,v1,0x2
80012140:	00431021 	addu	v0,v0,v1
80012144:	00021900 	sll	v1,v0,0x4
80012148:	00431021 	addu	v0,v0,v1
8001214c:	00021a00 	sll	v1,v0,0x8
80012150:	00431021 	addu	v0,v0,v1
80012154:	00021c00 	sll	v1,v0,0x10
80012158:	00431021 	addu	v0,v0,v1
8001215c:	00021023 	negu	v0,v0
80012160:	00021300 	sll	v0,v0,0xc
80012164:	10820009 	beq	a0,v0,8001218c <page_check+0xc74>
80012168:	24020001 	li	v0,1
8001216c:	3c048001 	lui	a0,0x8001
80012170:	2484264c 	addiu	a0,a0,9804
80012174:	240501fc 	li	a1,508
80012178:	3c068001 	lui	a2,0x8001
8001217c:	24c627c4 	addiu	a2,a2,10180
80012180:	3c078001 	lui	a3,0x8001
80012184:	0c0042b4 	jal	80010ad0 <_panic>
80012188:	24e728e4 	addiu	a3,a3,10468
8001218c:	aca00000 	sw	zero,0(a1)
80012190:	8fa40014 	lw	a0,20(sp)
80012194:	94830008 	lhu	v1,8(a0)
80012198:	10620009 	beq	v1,v0,800121c0 <page_check+0xca8>
8001219c:	3c028001 	lui	v0,0x8001
800121a0:	3c048001 	lui	a0,0x8001
800121a4:	2484264c 	addiu	a0,a0,9804
800121a8:	240501fe 	li	a1,510
800121ac:	3c068001 	lui	a2,0x8001
800121b0:	24c627c4 	addiu	a2,a2,10180
800121b4:	3c078001 	lui	a3,0x8001
800121b8:	0c0042b4 	jal	80010ad0 <_panic>
800121bc:	24e72b0c 	addiu	a3,a3,11020
800121c0:	a4800008 	sh	zero,8(a0)
800121c4:	ac5131b4 	sw	s1,12724(v0)
800121c8:	0c004465 	jal	80011194 <page_free>
800121cc:	8fa40014 	lw	a0,20(sp)
800121d0:	0c004465 	jal	80011194 <page_free>
800121d4:	8fa40018 	lw	a0,24(sp)
800121d8:	0c004465 	jal	80011194 <page_free>
800121dc:	8fa4001c 	lw	a0,28(sp)
800121e0:	3c048001 	lui	a0,0x8001
800121e4:	0c0042a5 	jal	80010a94 <printf>
800121e8:	24842b20 	addiu	a0,a0,11040
800121ec:	8fbf0028 	lw	ra,40(sp)
800121f0:	8fb10024 	lw	s1,36(sp)
800121f4:	8fb00020 	lw	s0,32(sp)
800121f8:	03e00008 	jr	ra
800121fc:	27bd0030 	addiu	sp,sp,48

80012200 <pageout>:
80012200:	27bdffd8 	addiu	sp,sp,-40
80012204:	afbf0020 	sw	ra,32(sp)
80012208:	afb1001c 	sw	s1,28(sp)
8001220c:	afb00018 	sw	s0,24(sp)
80012210:	00808021 	move	s0,a0
80012214:	00a08821 	move	s1,a1
80012218:	04a00007 	bltz	a1,80012238 <pageout+0x38>
8001221c:	afa00010 	sw	zero,16(sp)
80012220:	3c048001 	lui	a0,0x8001
80012224:	2484264c 	addiu	a0,a0,9804
80012228:	24050214 	li	a1,532
8001222c:	3c068001 	lui	a2,0x8001
80012230:	0c0042b4 	jal	80010ad0 <_panic>
80012234:	24c62b3c 	addiu	a2,a2,11068
80012238:	3c0280bf 	lui	v0,0x80bf
8001223c:	3442ffff 	ori	v0,v0,0xffff
80012240:	00821021 	addu	v0,a0,v0
80012244:	3c03003f 	lui	v1,0x3f
80012248:	3463fffe 	ori	v1,v1,0xfffe
8001224c:	0062102b 	sltu	v0,v1,v0
80012250:	14400007 	bnez	v0,80012270 <pageout+0x70>
80012254:	3402ffff 	li	v0,0xffff
80012258:	3c048001 	lui	a0,0x8001
8001225c:	2484264c 	addiu	a0,a0,9804
80012260:	24050216 	li	a1,534
80012264:	3c068001 	lui	a2,0x8001
80012268:	0c0042b4 	jal	80010ad0 <_panic>
8001226c:	24c62b58 	addiu	a2,a2,11096
80012270:	0044102a 	slt	v0,v0,a0
80012274:	14400006 	bnez	v0,80012290 <pageout+0x90>
80012278:	3c048001 	lui	a0,0x8001
8001227c:	2484264c 	addiu	a0,a0,9804
80012280:	24050219 	li	a1,537
80012284:	3c068001 	lui	a2,0x8001
80012288:	0c0042b4 	jal	80010ad0 <_panic>
8001228c:	24c62b80 	addiu	a2,a2,11136
80012290:	0c00444f 	jal	8001113c <page_alloc>
80012294:	27a40010 	addiu	a0,sp,16
80012298:	8fa30010 	lw	v1,16(sp)
8001229c:	94620008 	lhu	v0,8(v1)
800122a0:	24420001 	addiu	v0,v0,1
800122a4:	a4620008 	sh	v0,8(v1)
800122a8:	02202021 	move	a0,s1
800122ac:	8fa50010 	lw	a1,16(sp)
800122b0:	2406f000 	li	a2,-4096
800122b4:	02063024 	and	a2,s0,a2
800122b8:	0c0044de 	jal	80011378 <page_insert>
800122bc:	24070400 	li	a3,1024
800122c0:	3c048001 	lui	a0,0x8001
800122c4:	24842b98 	addiu	a0,a0,11160
800122c8:	0c0042a5 	jal	80010a94 <printf>
800122cc:	02002821 	move	a1,s0
800122d0:	8fbf0020 	lw	ra,32(sp)
800122d4:	8fb1001c 	lw	s1,28(sp)
800122d8:	8fb00018 	lw	s0,24(sp)
800122dc:	03e00008 	jr	ra
800122e0:	27bd0028 	addiu	sp,sp,40
	...

800122f0 <tlb_out>:
800122f0:	00000000 	nop
800122f4:	401b5000 	mfc0	k1,c0_entryhi
800122f8:	40845000 	mtc0	a0,c0_entryhi
800122fc:	00000000 	nop
80012300:	42000008 	tlbp
	...
80012314:	401a0000 	mfc0	k0,c0_index
80012318:	07400006 	bltz	k0,80012334 <NOFOUND>
8001231c:	00000000 	nop
80012320:	00000000 	nop
80012324:	40805000 	mtc0	zero,c0_entryhi
80012328:	40801000 	mtc0	zero,c0_entrylo0
8001232c:	00000000 	nop
80012330:	42000002 	tlbwi

80012334 <NOFOUND>:
80012334:	03e00008 	jr	ra
80012338:	409b5000 	mtc0	k1,c0_entryhi
8001233c:	00000000 	nop

80012340 <theFatalMsg>:
80012340:	66617461 6c206572 726f7220 696e206c     fatal error in l
80012350:	705f5072 696e7421 00000000 00000000     p_Print!........
80012360:	80010694 8001069c 8001069c 8001069c     ................
80012370:	8001069c 8001069c 8001069c 8001069c     ................
80012380:	8001069c 8001069c 8001069c 8001069c     ................
80012390:	8001069c 8001069c 8001069c 8001069c     ................
800123a0:	8001069c 8001069c 8001069c 8001069c     ................
800123b0:	8001069c 8001069c 8001069c 8001069c     ................
800123c0:	8001069c 8001069c 8001069c 8001069c     ................
800123d0:	8001069c 8001069c 8001069c 8001069c     ................
800123e0:	8001069c 8001069c 8001069c 8001069c     ................
800123f0:	8001069c 8001069c 8001069c 8001069c     ................
80012400:	8001069c 8001069c 8001069c 8001069c     ................
80012410:	8001069c 8001069c 8001069c 8001069c     ................
80012420:	8001069c 8001069c 8001069c 8001069c     ................
80012430:	8001069c 8001069c 8001069c 8001069c     ................
80012440:	8001069c 8001069c 8001069c 8001069c     ................
80012450:	8001069c 8001069c 8001069c 8001069c     ................
80012460:	8001069c 8001069c 8001069c 8001069c     ................
80012470:	80010418 8001069c 8001069c 8001069c     ................
80012480:	8001069c 8001069c 8001069c 8001069c     ................
80012490:	8001069c 8001069c 8001069c 8001049c     ................
800124a0:	8001069c 8001069c 8001069c 8001069c     ................
800124b0:	8001069c 8001049c 8001069c 8001069c     ................
800124c0:	80010584 8001069c 8001069c 8001069c     ................
800124d0:	8001069c 8001069c 8001069c 8001069c     ................
800124e0:	8001069c 8001069c 800103a4 800105fc     ................
800124f0:	80010418 8001069c 8001069c 8001069c     ................
80012500:	8001069c 8001069c 8001069c 8001069c     ................
80012510:	8001069c 8001069c 8001069c 8001049c     ................
80012520:	8001069c 8001069c 8001069c 80010648     ...............H
80012530:	8001069c 8001049c 8001069c 8001069c     ................
80012540:	80010510 00000000 00000000 00000000     ................
80012550:	6d61696e 2e633a09 6d61696e 20697320     main.c:.main is 
80012560:	73746172 74202e2e 2e0a0000 6d61696e     start ......main
80012570:	2e630000 6d61696e 20697320 6f766572     .c..main is over
80012580:	20697320 6572726f 72210000 696e6974      is error!..init
80012590:	2e633a09 6d697073 5f696e69 74282920     .c:.mips_init() 
800125a0:	69732063 616c6c65 640a0000 696e6974     is called...init
800125b0:	2e630000 5e5e5e5e 5e5e5e5e 5e5e5e5e     .c..^^^^^^^^^^^^
800125c0:	5e5e5e5e 5e5e5e5e 5e5e5e5e 5e5e5e5e     ^^^^^^^^^^^^^^^^
800125d0:	5e5e5e5e 5e5e5e5e 5e000000 70616e69     ^^^^^^^^^...pani
800125e0:	63206174 2025733a 25643a20 00000000     c at %s:%d: ....
800125f0:	0a000000 50687973 6963616c 206d656d     ....Physical mem
80012600:	6f72793a 2025644b 20617661 696c6162     ory: %dK availab
80012610:	6c652c20 00000000 62617365 203d2025     le, ....base = %
80012620:	644b2c20 65787465 6e646564 203d2025     dK, extended = %
80012630:	644b0a00 706d6170 2e633a09 616c6c6f     dK..pmap.c:.allo
80012640:	63206672 6f6d2025 78200000 706d6170     c from %x ..pmap
80012650:	2e630000 4b414444 52206361 6c6c6564     .c..KADDR called
80012660:	20776974 6820696e 76616c69 64207061      with invalid pa
80012670:	20253038 6c780000 746f206d 656d6f72      %08lx..to memor
80012680:	79202578 20666f72 20506167 65546162     y %x for PageTab
80012690:	6c652069 6e20626f 6f745f70 67646972     le in boot_pgdir
800126a0:	5f77616c 6b2e0a00 50414444 52206361     _walk...PADDR ca
800126b0:	6c6c6564 20776974 6820696e 76616c69     lled with invali
800126c0:	64206b76 61202530 386c7800 746f206d     d kva %08lx.to m
800126d0:	656d6f72 79202578 20666f72 20737472     emory %x for str
800126e0:	75637420 70616765 20646972 6563746f     uct page directo
800126f0:	72792e0a 00000000 746f206d 656d6f72     ry......to memor
80012700:	79202578 20666f72 20737472 75637420     y %x for struct 
80012710:	50616765 732e0a00 706d6170 2e633a09     Pages...pmap.c:.
80012720:	206d6970 7320766d 20696e69 74207375      mips vm init su
80012730:	63636573 730a0000 66726565 6d656d3a     ccess...freemem:
80012740:	0925780a 00000000 616c6c6f 63617465     .%x.....allocate
80012750:	64207061 6765733a 0925640a 00000000     d pages:.%d.....
80012760:	66726565 20706167 65733a09 25640a00     free pages:.%d..
80012770:	2e2e2f69 6e636c75 64652f70 6d61702e     ../include/pmap.
80012780:	68000000 70613270 61676520 63616c6c     h...pa2page call
80012790:	65642077 69746820 696e7661 6c696420     ed with invalid 
800127a0:	70613a20 25780000 25782070 6167655f     pa: %x..%x page_
800127b0:	696e7365 72742073 75636365 6564210a     insert succeed!.
800127c0:	00000000 61737365 7274696f 6e206661     ....assertion fa
800127d0:	696c6564 3a202573 00000000 70616765     iled: %s....page
800127e0:	5f616c6c 6f632826 70703029 203d3d20     _alloc(&pp0) == 
800127f0:	30000000 70616765 5f616c6c 6f632826     0...page_alloc(&
80012800:	70703129 203d3d20 30000000 70616765     pp1) == 0...page
80012810:	5f616c6c 6f632826 70703229 203d3d20     _alloc(&pp2) == 
80012820:	30000000 70703120 26262070 70312021     0...pp1 && pp1 !
80012830:	3d207070 30000000 70703220 26262070     = pp0...pp2 && p
80012840:	70322021 3d207070 31202626 20707032     p2 != pp1 && pp2
80012850:	20213d20 70703000 70616765 5f616c6c      != pp0.page_all
80012860:	6f632826 70702920 3d3d202d 455f4e4f     oc(&pp) == -E_NO
80012870:	5f4d454d 00000000 73746172 74207061     _MEM....start pa
80012880:	67655f69 6e736572 740a0000 70616765     ge_insert...page
80012890:	5f696e73 65727428 626f6f74 5f706764     _insert(boot_pgd
800128a0:	69722c20 7070312c 20307830 2c203029     ir, pp1, 0x0, 0)
800128b0:	203c2030 00000000 70616765 5f696e73      < 0....page_ins
800128c0:	65727428 626f6f74 5f706764 69722c20     ert(boot_pgdir, 
800128d0:	7070312c 20307830 2c203029 203d3d20     pp1, 0x0, 0) == 
800128e0:	30000000 5054455f 41444452 28626f6f     0...PTE_ADDR(boo
800128f0:	745f7067 6469725b 305d2920 3d3d2070     t_pgdir[0]) == p
80012900:	61676532 70612870 70302900 76613270     age2pa(pp0).va2p
80012910:	6128626f 6f745f70 67646972 2c203078     a(boot_pgdir, 0x
80012920:	3029203d 3d207061 67653270 61287070     0) == page2pa(pp
80012930:	31290000 7070312d 3e70705f 72656620     1)..pp1->pp_ref 
80012940:	3d3d2031 00000000 70616765 5f696e73     == 1....page_ins
80012950:	65727428 626f6f74 5f706764 69722c20     ert(boot_pgdir, 
80012960:	7070322c 20425932 50472c20 3029203d     pp2, BY2PG, 0) =
80012970:	3d203000 76613270 6128626f 6f745f70     = 0.va2pa(boot_p
80012980:	67646972 2c204259 32504729 203d3d20     gdir, BY2PG) == 
80012990:	70616765 32706128 70703229 00000000     page2pa(pp2)....
800129a0:	7070322d 3e70705f 72656620 3d3d2031     pp2->pp_ref == 1
800129b0:	00000000 70616765 5f696e73 65727428     ....page_insert(
800129c0:	626f6f74 5f706764 69722c20 7070302c     boot_pgdir, pp0,
800129d0:	2050444d 41502c20 3029203c 20300000      PDMAP, 0) < 0..
800129e0:	70616765 5f696e73 65727428 626f6f74     page_insert(boot
800129f0:	5f706764 69722c20 7070312c 20425932     _pgdir, pp1, BY2
80012a00:	50472c20 3029203d 3d203000 76613270     PG, 0) == 0.va2p
80012a10:	6128626f 6f745f70 67646972 2c204259     a(boot_pgdir, BY
80012a20:	32504729 203d3d20 70616765 32706128     2PG) == page2pa(
80012a30:	70703129 00000000 7070312d 3e70705f     pp1)....pp1->pp_
80012a40:	72656620 3d3d2032 00000000 7070322d     ref == 2....pp2-
80012a50:	3e70705f 72656620 3d3d2030 00000000     >pp_ref == 0....
80012a60:	656e6420 70616765 5f696e73 65727400     end page_insert.
80012a70:	70616765 5f616c6c 6f632826 70702920     page_alloc(&pp) 
80012a80:	3d3d2030 20262620 7070203d 3d207070     == 0 && pp == pp
80012a90:	32000000 76613270 6128626f 6f745f70     2...va2pa(boot_p
80012aa0:	67646972 2c203078 3029203d 3d207e30     gdir, 0x0) == ~0
80012ab0:	00000000 76613270 6128626f 6f745f70     ....va2pa(boot_p
80012ac0:	67646972 2c204259 32504729 203d3d20     gdir, BY2PG) == 
80012ad0:	7e300000 7070312d 3e70705f 72656620     ~0..pp1->pp_ref 
80012ae0:	3d3d2030 00000000 70616765 5f616c6c     == 0....page_all
80012af0:	6f632826 70702920 3d3d2030 20262620     oc(&pp) == 0 && 
80012b00:	7070203d 3d207070 31000000 7070302d     pp == pp1...pp0-
80012b10:	3e70705f 72656620 3d3d2031 00000000     >pp_ref == 1....
80012b20:	70616765 5f636865 636b2829 20737563     page_check() suc
80012b30:	63656564 6564210a 00000000 746c6220     ceeded!.....tlb 
80012b40:	72656669 6c6c2061 6e642061 6c6c6f63     refill and alloc
80012b50:	20657272 6f722100 3e3e3e3e 3e3e3e3e      error!.>>>>>>>>
80012b60:	3e3e3e3e 3e3e3e3e 3e3e3e3e 3e3e6974     >>>>>>>>>>>>>>it
80012b70:	27732065 6e762773 207a6f6e 65000000     's env's zone...
80012b80:	5e5e5e5e 5e5e544f 4f204c4f 575e5e5e     ^^^^^^TOO LOW^^^
80012b90:	5e5e5e5e 5e5e0000 70616765 6f75743a     ^^^^^^..pageout:
80012ba0:	09404040 5f5f5f30 7825785f 5f5f4040     .@@@___0x%x___@@
80012bb0:	40202069 6e732061 20706167 65200a00     @  ins a page ..
